(dp0
S'Element 8'
p1
(dp2
S'diameter'
p3
F1.1
sS'length'
p4
F50.0
sS'vector'
p5
(lp6
F0.0
aF0.0
aF1.0
asS'center'
p7
(lp8
F0.0
aF0.0
aF65.9
asS'position'
p9
(lp10
F0.0
aF0.0
aF40.9
asS'type'
p11
S'Tube'
p12
sS'shape'
p13
S'cylinder'
p14
sS'axis'
p15
S'Axe Z'
p16
ssS'Plot8'
p17
(dp18
g3
F1.1
sg4
F2.4
sg5
(lp19
F0.0
aF0.0
aF1.0
asg7
(lp20
F0.0
aF0.0
aF39.7
asg9
(lp21
F0.0
aF0.0
aF38.5
asg11
S'Plot'
p22
sg13
g14
sg15
S'Axe Z'
p23
ssS'Element 1'
p24
(dp25
g3
F1.1
sg4
F3.1
sg5
(lp26
F0.0
aF0.0
aF1.0
asg7
(lp27
F0.0
aF0.0
aF3.95
asg9
(lp28
F0.0
aF0.0
aF2.4
asg11
S'Tube'
p29
sg13
g14
sg15
S'Axe Z'
p30
ssS'Element 3'
p31
(dp32
g3
F1.1
sg4
F3.1
sg5
(lp33
F0.0
aF0.0
aF1.0
asg7
(lp34
F0.0
aF0.0
aF14.950000000000001
asg9
(lp35
F0.0
aF0.0
aF13.4
asg11
S'Tube'
p36
sg13
g14
sg15
S'Axe Z'
p37
ssS'Element 2'
p38
(dp39
g3
F1.1
sg4
F3.1
sg5
(lp40
F0.0
aF0.0
aF1.0
asg7
(lp41
F0.0
aF0.0
aF9.450000000000001
asg9
(lp42
F0.0
aF0.0
aF7.9
asg11
S'Tube'
p43
sg13
g14
sg15
S'Axe Z'
p44
ssS'Element 5'
p45
(dp46
g3
F1.1
sg4
F3.1
sg5
(lp47
F0.0
aF0.0
aF1.0
asg7
(lp48
F0.0
aF0.0
aF25.95
asg9
(lp49
F0.0
aF0.0
aF24.4
asg11
S'Tube'
p50
sg13
g14
sg15
S'Axe Z'
p51
ssS'Element 4'
p52
(dp53
g3
F1.1
sg4
F3.1
sg5
(lp54
F0.0
aF0.0
aF1.0
asg7
(lp55
F0.0
aF0.0
aF20.45
asg9
(lp56
F0.0
aF0.0
aF18.9
asg11
S'Tube'
p57
sg13
g14
sg15
S'Axe Z'
p58
ssS'Element 7'
p59
(dp60
g3
F1.1
sg4
F3.1
sg5
(lp61
F0.0
aF0.0
aF1.0
asg7
(lp62
F0.0
aF0.0
aF36.949999999999996
asg9
(lp63
F0.0
aF0.0
aF35.4
asg11
S'Tube'
p64
sg13
g14
sg15
S'Axe Z'
p65
ssS'Element 6'
p66
(dp67
g3
F1.1
sg4
F3.1
sg5
(lp68
F0.0
aF0.0
aF1.0
asg7
(lp69
F0.0
aF0.0
aF31.45
asg9
(lp70
F0.0
aF0.0
aF29.9
asg11
S'Tube'
p71
sg13
g14
sg15
S'Axe Z'
p72
ssS'Plot2'
p73
(dp74
g3
F1.1
sg4
F2.4
sg5
(lp75
F0.0
aF0.0
aF1.0
asg7
(lp76
F0.0
aF0.0
aF6.7
asg9
(lp77
F0.0
aF0.0
aF5.5
asg11
S'Plot'
p78
sg13
g14
sg15
S'Axe Z'
p79
ssS'Plot3'
p80
(dp81
g3
F1.1
sg4
F2.4
sg5
(lp82
F0.0
aF0.0
aF1.0
asg7
(lp83
F0.0
aF0.0
aF12.2
asg9
(lp84
F0.0
aF0.0
aF11.0
asg11
S'Plot'
p85
sg13
g14
sg15
S'Axe Z'
p86
ssS'Plot1'
p87
(dp88
g3
F1.1
sg4
F2.4
sg5
(lp89
F0.0
aF0.0
aF1.0
asg7
(lp90
F0.0
aF0.0
aF1.2
asg9
(lp91
F0.0
aF0.0
aF0.0
asg11
S'Plot'
p92
sg13
g14
sg15
S'Axe Z'
p93
ssS'Plot6'
p94
(dp95
g3
F1.1
sg4
F2.4
sg5
(lp96
F0.0
aF0.0
aF1.0
asg7
(lp97
F0.0
aF0.0
aF28.7
asg9
(lp98
F0.0
aF0.0
aF27.5
asg11
S'Plot'
p99
sg13
g14
sg15
S'Axe Z'
p100
ssS'Plot7'
p101
(dp102
g3
F1.1
sg4
F2.4
sg5
(lp103
F0.0
aF0.0
aF1.0
asg7
(lp104
F0.0
aF0.0
aF34.2
asg9
(lp105
F0.0
aF0.0
aF33.0
asg11
S'Plot'
p106
sg13
g14
sg15
S'Axe Z'
p107
ssS'Plot4'
p108
(dp109
g3
F1.1
sg4
F2.4
sg5
(lp110
F0.0
aF0.0
aF1.0
asg7
(lp111
F0.0
aF0.0
aF17.7
asg9
(lp112
F0.0
aF0.0
aF16.5
asg11
S'Plot'
p113
sg13
g14
sg15
S'Axe Z'
p114
ssS'Plot5'
p115
(dp116
g3
F1.1
sg4
F2.4
sg5
(lp117
F0.0
aF0.0
aF1.0
asg7
(lp118
F0.0
aF0.0
aF23.2
asg9
(lp119
F0.0
aF0.0
aF22.0
asg11
S'Plot'
p120
sg13
g14
sg15
S'Axe Z'
p121
ss.