(dp0
S'Plot9'
p1
(dp2
S'diameter'
p3
F1.1
sS'length'
p4
F2.4
sS'vector'
p5
(lp6
F0.0
aF0.0
aF1.0
asS'center'
p7
(lp8
F0.0
aF0.0
aF33.2
asS'position'
p9
(lp10
F0.0
aF0.0
aF32.0
asS'type'
p11
S'Plot'
p12
sS'shape'
p13
S'cylinder'
p14
sS'axis'
p15
S'Axe Z'
p16
ssS'Element 8'
p17
(dp18
S'diameter'
p19
F1.1
sS'center'
p20
(lp21
F0.0
aF0.0
aF31.2
asS'shape'
p22
S'cylinder'
p23
sS'length'
p24
F1.6
sS'vector'
p25
(lp26
F0.0
aF0.0
aF1.0
asS'position'
p27
(lp28
F0.0
aF0.0
aF30.4
asS'type'
p29
S'Tube'
p30
sS'axis'
p31
S'Axe Z'
p32
ssS'Element9'
p33
(dp34
g19
F1.1
sg20
(lp35
F0.0
aF0.0
aF35.199999999999996
asg22
g23
sg24
F1.6
sg25
(lp36
F0.0
aF0.0
aF1.0
asg27
(lp37
F0.0
aF0.0
aF34.4
asg29
S'Tube'
p38
sg31
S'Axe Z'
p39
ssS'Plot10'
p40
(dp41
g19
F1.1
sg20
(lp42
F0.0
aF0.0
aF37.2
asg22
g23
sg24
F2.4
sg25
(lp43
F0.0
aF0.0
aF1.0
asg27
(lp44
F0.0
aF0.0
aF36.0
asg29
S'Plot'
p45
sg31
S'Axe Z'
p46
ssS'Element 3'
p47
(dp48
S'diameter'
p49
F1.1
sS'center'
p50
(lp51
F0.0
aF0.0
aF11.200000000000001
asS'length'
p52
F1.6
sS'shape'
p53
S'cylinder'
p54
sS'vector'
p55
(lp56
F0.0
aF0.0
aF1.0
asS'position'
p57
(lp58
F0.0
aF0.0
aF10.4
asS'type'
p59
S'Tube'
p60
sS'axis'
p61
S'Axe Z'
p62
ssS'Element 1'
p63
(dp64
g49
F1.1
sg50
(lp65
F0.0
aF0.0
aF3.2
asg52
F1.6
sg53
g54
sg55
(lp66
F0.0
aF0.0
aF1.0
asg57
(lp67
F0.0
aF0.0
aF2.4
asg59
S'Tube'
p68
sg61
S'Axe Z'
p69
ssS'Element 10'
p70
(dp71
g19
F1.1
sg20
(lp72
F0.0
aF0.0
aF63.4
asg22
g23
sg24
F50.0
sg25
(lp73
F0.0
aF0.0
aF1.0
asg27
(lp74
F0.0
aF0.0
aF38.4
asg29
S'Tube'
p75
sg31
S'Axe Z'
p76
ssS'Element 2'
p77
(dp78
g49
F1.1
sg50
(lp79
F0.0
aF0.0
aF7.2
asg52
F1.6
sg53
g54
sg55
(lp80
F0.0
aF0.0
aF1.0
asg57
(lp81
F0.0
aF0.0
aF6.4
asg59
S'Tube'
p82
sg61
S'Axe Z'
p83
ssS'Element 5'
p84
(dp85
g49
F1.1
sg50
(lp86
F0.0
aF0.0
aF19.2
asg52
F1.6
sg53
g54
sg55
(lp87
F0.0
aF0.0
aF1.0
asg57
(lp88
F0.0
aF0.0
aF18.4
asg59
S'Tube'
p89
sg61
S'Axe Z'
p90
ssS'Element 4'
p91
(dp92
g49
F1.1
sg50
(lp93
F0.0
aF0.0
aF15.200000000000001
asg52
F1.6
sg53
g54
sg55
(lp94
F0.0
aF0.0
aF1.0
asg57
(lp95
F0.0
aF0.0
aF14.4
asg59
S'Tube'
p96
sg61
S'Axe Z'
p97
ssS'Element 7'
p98
(dp99
g49
F1.1
sg50
(lp100
F0.0
aF0.0
aF27.2
asg52
F1.6
sg53
g54
sg55
(lp101
F0.0
aF0.0
aF1.0
asg57
(lp102
F0.0
aF0.0
aF26.4
asg59
S'Tube'
p103
sg61
S'Axe Z'
p104
ssS'Element 6'
p105
(dp106
g49
F1.1
sg50
(lp107
F0.0
aF0.0
aF23.2
asg52
F1.6
sg53
g54
sg55
(lp108
F0.0
aF0.0
aF1.0
asg57
(lp109
F0.0
aF0.0
aF22.4
asg59
S'Tube'
p110
sg61
S'Axe Z'
p111
ssS'Plot2'
p112
(dp113
g49
F1.1
sg50
(lp114
F0.0
aF0.0
aF5.2
asg52
F2.4
sg53
g54
sg55
(lp115
F0.0
aF0.0
aF1.0
asg57
(lp116
F0.0
aF0.0
aF4.0
asg59
S'Plot'
p117
sg61
S'Axe Z'
p118
ssS'Plot3'
p119
(dp120
g49
F1.1
sg50
(lp121
F0.0
aF0.0
aF9.2
asg52
F2.4
sg53
g54
sg55
(lp122
F0.0
aF0.0
aF1.0
asg57
(lp123
F0.0
aF0.0
aF8.0
asg59
S'Plot'
p124
sg61
S'Axe Z'
p125
ssS'Plot8'
p126
(dp127
g49
F1.1
sg50
(lp128
F0.0
aF0.0
aF29.2
asg52
F2.4
sg53
g54
sg55
(lp129
F0.0
aF0.0
aF1.0
asg57
(lp130
F0.0
aF0.0
aF28.0
asg59
S'Plot'
p131
sg61
S'Axe Z'
p132
ssS'Plot1'
p133
(dp134
S'diameter'
p135
F1.1
sS'center'
p136
(lp137
F0.0
aF0.0
aF1.2
asS'length'
p138
F2.4
sS'shape'
p139
S'cylinder'
p140
sS'vector'
p141
(lp142
F0.0
aF0.0
aF1.0
asS'position'
p143
(lp144
F0.0
aF0.0
aF0.0
asS'type'
p145
S'Plot'
p146
sS'axis'
p147
S'Axe Z'
p148
ssS'Plot6'
p149
(dp150
g49
F1.1
sg50
(lp151
F0.0
aF0.0
aF21.2
asg52
F2.4
sg53
g54
sg55
(lp152
F0.0
aF0.0
aF1.0
asg57
(lp153
F0.0
aF0.0
aF20.0
asg59
S'Plot'
p154
sg61
S'Axe Z'
p155
ssS'Plot7'
p156
(dp157
g49
F1.1
sg50
(lp158
F0.0
aF0.0
aF25.2
asg52
F2.4
sg53
g54
sg55
(lp159
F0.0
aF0.0
aF1.0
asg57
(lp160
F0.0
aF0.0
aF24.0
asg59
S'Plot'
p161
sg61
S'Axe Z'
p162
ssS'Plot4'
p163
(dp164
g49
F1.1
sg50
(lp165
F0.0
aF0.0
aF13.2
asg52
F2.4
sg53
g54
sg55
(lp166
F0.0
aF0.0
aF1.0
asg57
(lp167
F0.0
aF0.0
aF12.0
asg59
S'Plot'
p168
sg61
S'Axe Z'
p169
ssS'Plot5'
p170
(dp171
g49
F1.1
sg50
(lp172
F0.0
aF0.0
aF17.2
asg52
F2.4
sg53
g54
sg55
(lp173
F0.0
aF0.0
aF1.0
asg57
(lp174
F0.0
aF0.0
aF16.0
asg59
S'Plot'
p175
sg61
S'Axe Z'
p176
ss.