(dp0
S'Plot8'
p1
(dp2
S'diameter'
p3
F1.1
sS'center'
p4
(lp5
F0.0
aF0.0
aF32.7
asS'length'
p6
F2.4
sS'shape'
p7
S'cylinder'
p8
sS'vector'
p9
(lp10
F0.0
aF0.0
aF1.0
asS'position'
p11
(lp12
F0.0
aF0.0
aF31.5
asS'type'
p13
S'Plot'
p14
sS'axis'
p15
S'Axe Z'
p16
ssS'Plot9'
p17
(dp18
g3
F1.1
sg4
(lp19
F0.0
aF0.0
aF37.2
asg6
F2.4
sg7
g8
sg9
(lp20
F0.0
aF0.0
aF1.0
asg11
(lp21
F0.0
aF0.0
aF36.0
asg13
S'Plot'
p22
sg15
S'Axe Z'
p23
ssS'Plot14'
p24
(dp25
S'diameter'
p26
F1.1
sS'length'
p27
F2.4
sS'vector'
p28
(lp29
F0.0
aF0.0
aF1.0
asS'center'
p30
(lp31
F0.0
aF0.0
aF59.7
asS'position'
p32
(lp33
F0.0
aF0.0
aF58.5
asS'type'
p34
S'Plot'
p35
sS'shape'
p36
S'cylinder'
p37
sS'axis'
p38
S'Axe Z'
p39
ssS'Plot10'
p40
(dp41
g3
F1.1
sg4
(lp42
F0.0
aF0.0
aF41.7
asg6
F2.4
sg7
g8
sg9
(lp43
F0.0
aF0.0
aF1.0
asg11
(lp44
F0.0
aF0.0
aF40.5
asg13
S'Plot'
p45
sg15
S'Axe Z'
p46
ssS'Plot11'
p47
(dp48
g3
F1.1
sg4
(lp49
F0.0
aF0.0
aF46.2
asg6
F2.4
sg7
g8
sg9
(lp50
F0.0
aF0.0
aF1.0
asg11
(lp51
F0.0
aF0.0
aF45.0
asg13
S'Plot'
p52
sg15
S'Axe Z'
p53
ssS'Plot12'
p54
(dp55
S'diameter'
p56
F1.1
sS'center'
p57
(lp58
F0.0
aF0.0
aF50.7
asS'shape'
p59
S'cylinder'
p60
sS'length'
p61
F2.4
sS'vector'
p62
(lp63
F0.0
aF0.0
aF1.0
asS'position'
p64
(lp65
F0.0
aF0.0
aF49.5
asS'type'
p66
S'Plot'
p67
sS'axis'
p68
S'Axe Z'
p69
ssS'Plot13'
p70
(dp71
g26
F1.1
sg27
F2.4
sg28
(lp72
F0.0
aF0.0
aF1.0
asg30
(lp73
F0.0
aF0.0
aF55.2
asg32
(lp74
F0.0
aF0.0
aF54.0
asg34
S'Plot'
p75
sg36
g37
sg38
S'Axe Z'
p76
ssS'Element 1'
p77
(dp78
g3
F1.1
sg4
(lp79
F0.0
aF0.0
aF3.45
asg6
F2.1
sg7
g8
sg9
(lp80
F0.0
aF0.0
aF1.0
asg11
(lp81
F0.0
aF0.0
aF2.4
asg13
S'Tube'
p82
sg15
S'Axe Z'
p83
ssS'Element 3'
p84
(dp85
g3
F1.1
sg4
(lp86
F0.0
aF0.0
aF12.450000000000001
asg6
F2.1
sg7
g8
sg9
(lp87
F0.0
aF0.0
aF1.0
asg11
(lp88
F0.0
aF0.0
aF11.4
asg13
S'Tube'
p89
sg15
S'Axe Z'
p90
ssS'Element 2'
p91
(dp92
g3
F1.1
sg4
(lp93
F0.0
aF0.0
aF7.95
asg6
F2.1
sg7
g8
sg9
(lp94
F0.0
aF0.0
aF1.0
asg11
(lp95
F0.0
aF0.0
aF6.9
asg13
S'Tube'
p96
sg15
S'Axe Z'
p97
ssS'Element 5'
p98
(dp99
g3
F1.1
sg4
(lp100
F0.0
aF0.0
aF21.45
asg6
F2.1
sg7
g8
sg9
(lp101
F0.0
aF0.0
aF1.0
asg11
(lp102
F0.0
aF0.0
aF20.4
asg13
S'Tube'
p103
sg15
S'Axe Z'
p104
ssS'Element 4'
p105
(dp106
g3
F1.1
sg4
(lp107
F0.0
aF0.0
aF16.95
asg6
F2.1
sg7
g8
sg9
(lp108
F0.0
aF0.0
aF1.0
asg11
(lp109
F0.0
aF0.0
aF15.9
asg13
S'Tube'
p110
sg15
S'Axe Z'
p111
ssS'Element 7'
p112
(dp113
g3
F1.1
sg4
(lp114
F0.0
aF0.0
aF30.45
asg6
F2.1
sg7
g8
sg9
(lp115
F0.0
aF0.0
aF1.0
asg11
(lp116
F0.0
aF0.0
aF29.4
asg13
S'Tube'
p117
sg15
S'Axe Z'
p118
ssS'Element 6'
p119
(dp120
g3
F1.1
sg4
(lp121
F0.0
aF0.0
aF25.95
asg6
F2.1
sg7
g8
sg9
(lp122
F0.0
aF0.0
aF1.0
asg11
(lp123
F0.0
aF0.0
aF24.9
asg13
S'Tube'
p124
sg15
S'Axe Z'
p125
ssS'Element 8'
p126
(dp127
g3
F1.1
sg4
(lp128
F0.0
aF0.0
aF34.949999999999996
asg6
F2.1
sg7
g8
sg9
(lp129
F0.0
aF0.0
aF1.0
asg11
(lp130
F0.0
aF0.0
aF33.9
asg13
S'Tube'
p131
sg15
S'Axe Z'
p132
ssS'Element9'
p133
(dp134
g3
F1.1
sg4
(lp135
F0.0
aF0.0
aF39.449999999999996
asg6
F2.1
sg7
g8
sg9
(lp136
F0.0
aF0.0
aF1.0
asg11
(lp137
F0.0
aF0.0
aF38.4
asg13
S'Tube'
p138
sg15
S'Axe Z'
p139
ssS'Element 11'
p140
(dp141
g56
F1.1
sg57
(lp142
F0.0
aF0.0
aF48.449999999999996
asg59
g60
sg61
F2.1
sg62
(lp143
F0.0
aF0.0
aF1.0
asg64
(lp144
F0.0
aF0.0
aF47.4
asg66
S'Tube'
p145
sg68
S'Axe Z'
p146
ssS'Element 10'
p147
(dp148
g3
F1.1
sg4
(lp149
F0.0
aF0.0
aF43.949999999999996
asg6
F2.1
sg7
g8
sg9
(lp150
F0.0
aF0.0
aF1.0
asg11
(lp151
F0.0
aF0.0
aF42.9
asg13
S'Tube'
p152
sg15
S'Axe Z'
p153
ssS'Element 13'
p154
(dp155
g26
F1.1
sg27
F2.1
sg28
(lp156
F0.0
aF0.0
aF1.0
asg30
(lp157
F0.0
aF0.0
aF57.449999999999996
asg32
(lp158
F0.0
aF0.0
aF56.4
asg34
S'Tube'
p159
sg36
g37
sg38
S'Axe Z'
p160
ssS'Element 12'
p161
(dp162
g56
F1.1
sg57
(lp163
F0.0
aF0.0
aF52.949999999999996
asg59
g60
sg61
F2.1
sg62
(lp164
F0.0
aF0.0
aF1.0
asg64
(lp165
F0.0
aF0.0
aF51.9
asg66
S'Tube'
p166
sg68
S'Axe Z'
p167
ssS'Element 14'
p168
(dp169
g26
F1.1
sg27
F50.0
sg28
(lp170
F0.0
aF0.0
aF1.0
asg30
(lp171
F0.0
aF0.0
aF85.9
asg32
(lp172
F0.0
aF0.0
aF60.9
asg34
S'Tube'
p173
sg36
g37
sg38
S'Axe Z'
p174
ssS'Plot2'
p175
(dp176
g3
F1.1
sg4
(lp177
F0.0
aF0.0
aF5.7
asg6
F2.4
sg7
g8
sg9
(lp178
F0.0
aF0.0
aF1.0
asg11
(lp179
F0.0
aF0.0
aF4.5
asg13
S'Plot'
p180
sg15
S'Axe Z'
p181
ssS'Plot3'
p182
(dp183
g3
F1.1
sg4
(lp184
F0.0
aF0.0
aF10.2
asg6
F2.4
sg7
g8
sg9
(lp185
F0.0
aF0.0
aF1.0
asg11
(lp186
F0.0
aF0.0
aF9.0
asg13
S'Plot'
p187
sg15
S'Axe Z'
p188
ssS'Plot1'
p189
(dp190
S'diameter'
p191
F1.1
sS'center'
p192
(lp193
F0.0
aF0.0
aF1.2
asS'length'
p194
F2.4
sS'shape'
p195
S'cylinder'
p196
sS'vector'
p197
(lp198
F0.0
aF0.0
aF1.0
asS'position'
p199
(lp200
F0.0
aF0.0
aF0.0
asS'type'
p201
S'Plot'
p202
sS'axis'
p203
S'Axe Z'
p204
ssS'Plot6'
p205
(dp206
g3
F1.1
sg4
(lp207
F0.0
aF0.0
aF23.7
asg6
F2.4
sg7
g8
sg9
(lp208
F0.0
aF0.0
aF1.0
asg11
(lp209
F0.0
aF0.0
aF22.5
asg13
S'Plot'
p210
sg15
S'Axe Z'
p211
ssS'Plot7'
p212
(dp213
g3
F1.1
sg4
(lp214
F0.0
aF0.0
aF28.2
asg6
F2.4
sg7
g8
sg9
(lp215
F0.0
aF0.0
aF1.0
asg11
(lp216
F0.0
aF0.0
aF27.0
asg13
S'Plot'
p217
sg15
S'Axe Z'
p218
ssS'Plot4'
p219
(dp220
g3
F1.1
sg4
(lp221
F0.0
aF0.0
aF14.7
asg6
F2.4
sg7
g8
sg9
(lp222
F0.0
aF0.0
aF1.0
asg11
(lp223
F0.0
aF0.0
aF13.5
asg13
S'Plot'
p224
sg15
S'Axe Z'
p225
ssS'Plot5'
p226
(dp227
g3
F1.1
sg4
(lp228
F0.0
aF0.0
aF19.2
asg6
F2.4
sg7
g8
sg9
(lp229
F0.0
aF0.0
aF1.0
asg11
(lp230
F0.0
aF0.0
aF18.0
asg13
S'Plot'
p231
sg15
S'Axe Z'
p232
ss.