(dp0
S'Element 13'
p1
(dp2
S'diameter'
p3
F1.1
sS'length'
p4
F1.6
sS'vector'
p5
(lp6
F0.0
aF0.0
aF1.0
asS'center'
p7
(lp8
F0.0
aF0.0
aF47.199999999999996
asS'position'
p9
(lp10
F0.0
aF0.0
aF46.4
asS'type'
p11
S'Tube'
p12
sS'shape'
p13
S'cylinder'
p14
sS'axis'
p15
S'Axe Z'
p16
ssS'Plot10'
p17
(dp18
S'diameter'
p19
F1.1
sS'center'
p20
(lp21
F0.0
aF0.0
aF37.2
asS'shape'
p22
S'cylinder'
p23
sS'length'
p24
F2.4
sS'vector'
p25
(lp26
F0.0
aF0.0
aF1.0
asS'position'
p27
(lp28
F0.0
aF0.0
aF36.0
asS'type'
p29
S'Plot'
p30
sS'axis'
p31
S'Axe Z'
p32
ssS'Plot11'
p33
(dp34
g19
F1.1
sg20
(lp35
F0.0
aF0.0
aF41.2
asg22
g23
sg24
F2.4
sg25
(lp36
F0.0
aF0.0
aF1.0
asg27
(lp37
F0.0
aF0.0
aF40.0
asg29
S'Plot'
p38
sg31
S'Axe Z'
p39
ssS'Plot12'
p40
(dp41
g3
F1.1
sg4
F2.4
sg5
(lp42
F0.0
aF0.0
aF1.0
asg7
(lp43
F0.0
aF0.0
aF45.2
asg9
(lp44
F0.0
aF0.0
aF44.0
asg11
S'Plot'
p45
sg13
g14
sg15
S'Axe Z'
p46
ssS'Plot13'
p47
(dp48
g3
F1.1
sg4
F2.4
sg5
(lp49
F0.0
aF0.0
aF1.0
asg7
(lp50
F0.0
aF0.0
aF49.2
asg9
(lp51
F0.0
aF0.0
aF48.0
asg11
S'Plot'
p52
sg13
g14
sg15
S'Axe Z'
p53
ssS'Element 1'
p54
(dp55
S'diameter'
p56
F1.1
sS'center'
p57
(lp58
F0.0
aF0.0
aF3.2
asS'length'
p59
F1.6
sS'shape'
p60
S'cylinder'
p61
sS'vector'
p62
(lp63
F0.0
aF0.0
aF1.0
asS'position'
p64
(lp65
F0.0
aF0.0
aF2.4
asS'type'
p66
S'Tube'
p67
sS'axis'
p68
S'Axe Z'
p69
ssS'Element 3'
p70
(dp71
g56
F1.1
sg57
(lp72
F0.0
aF0.0
aF11.200000000000001
asg59
F1.6
sg60
g61
sg62
(lp73
F0.0
aF0.0
aF1.0
asg64
(lp74
F0.0
aF0.0
aF10.4
asg66
S'Tube'
p75
sg68
S'Axe Z'
p76
ssS'Element 2'
p77
(dp78
g56
F1.1
sg57
(lp79
F0.0
aF0.0
aF7.2
asg59
F1.6
sg60
g61
sg62
(lp80
F0.0
aF0.0
aF1.0
asg64
(lp81
F0.0
aF0.0
aF6.4
asg66
S'Tube'
p82
sg68
S'Axe Z'
p83
ssS'Element 5'
p84
(dp85
g56
F1.1
sg57
(lp86
F0.0
aF0.0
aF19.2
asg59
F1.6
sg60
g61
sg62
(lp87
F0.0
aF0.0
aF1.0
asg64
(lp88
F0.0
aF0.0
aF18.4
asg66
S'Tube'
p89
sg68
S'Axe Z'
p90
ssS'Element 4'
p91
(dp92
g56
F1.1
sg57
(lp93
F0.0
aF0.0
aF15.200000000000001
asg59
F1.6
sg60
g61
sg62
(lp94
F0.0
aF0.0
aF1.0
asg64
(lp95
F0.0
aF0.0
aF14.4
asg66
S'Tube'
p96
sg68
S'Axe Z'
p97
ssS'Element 7'
p98
(dp99
g56
F1.1
sg57
(lp100
F0.0
aF0.0
aF27.2
asg59
F1.6
sg60
g61
sg62
(lp101
F0.0
aF0.0
aF1.0
asg64
(lp102
F0.0
aF0.0
aF26.4
asg66
S'Tube'
p103
sg68
S'Axe Z'
p104
ssS'Element 6'
p105
(dp106
g56
F1.1
sg57
(lp107
F0.0
aF0.0
aF23.2
asg59
F1.6
sg60
g61
sg62
(lp108
F0.0
aF0.0
aF1.0
asg64
(lp109
F0.0
aF0.0
aF22.4
asg66
S'Tube'
p110
sg68
S'Axe Z'
p111
ssS'Element 8'
p112
(dp113
g56
F1.1
sg57
(lp114
F0.0
aF0.0
aF31.2
asg59
F1.6
sg60
g61
sg62
(lp115
F0.0
aF0.0
aF1.0
asg64
(lp116
F0.0
aF0.0
aF30.4
asg66
S'Tube'
p117
sg68
S'Axe Z'
p118
ssS'Element9'
p119
(dp120
g19
F1.1
sg20
(lp121
F0.0
aF0.0
aF35.199999999999996
asg22
g23
sg24
F1.6
sg25
(lp122
F0.0
aF0.0
aF1.0
asg27
(lp123
F0.0
aF0.0
aF34.4
asg29
S'Tube'
p124
sg31
S'Axe Z'
p125
ssS'Element 11'
p126
(dp127
g3
F1.1
sg4
F1.6
sg5
(lp128
F0.0
aF0.0
aF1.0
asg7
(lp129
F0.0
aF0.0
aF43.199999999999996
asg9
(lp130
F0.0
aF0.0
aF42.4
asg11
S'Tube'
p131
sg13
g14
sg15
S'Axe Z'
p132
ssS'Element 10'
p133
(dp134
g19
F1.1
sg20
(lp135
F0.0
aF0.0
aF39.199999999999996
asg22
g23
sg24
F1.6
sg25
(lp136
F0.0
aF0.0
aF1.0
asg27
(lp137
F0.0
aF0.0
aF38.4
asg29
S'Tube'
p138
sg31
S'Axe Z'
p139
ssS'Plot8'
p140
(dp141
g56
F1.1
sg57
(lp142
F0.0
aF0.0
aF29.2
asg59
F2.4
sg60
g61
sg62
(lp143
F0.0
aF0.0
aF1.0
asg64
(lp144
F0.0
aF0.0
aF28.0
asg66
S'Plot'
p145
sg68
S'Axe Z'
p146
ssS'Plot9'
p147
(dp148
g56
F1.1
sg57
(lp149
F0.0
aF0.0
aF33.2
asg59
F2.4
sg60
g61
sg62
(lp150
F0.0
aF0.0
aF1.0
asg64
(lp151
F0.0
aF0.0
aF32.0
asg66
S'Plot'
p152
sg68
S'Axe Z'
p153
ssS'Element 14'
p154
(dp155
g3
F1.1
sg4
F50.0
sg5
(lp156
F0.0
aF0.0
aF1.0
asg7
(lp157
F0.0
aF0.0
aF75.4
asg9
(lp158
F0.0
aF0.0
aF50.4
asg11
S'Tube'
p159
sg13
g14
sg15
S'Axe Z'
p160
ssS'Plot2'
p161
(dp162
g56
F1.1
sg57
(lp163
F0.0
aF0.0
aF5.2
asg59
F2.4
sg60
g61
sg62
(lp164
F0.0
aF0.0
aF1.0
asg64
(lp165
F0.0
aF0.0
aF4.0
asg66
S'Plot'
p166
sg68
S'Axe Z'
p167
ssS'Plot3'
p168
(dp169
g56
F1.1
sg57
(lp170
F0.0
aF0.0
aF9.2
asg59
F2.4
sg60
g61
sg62
(lp171
F0.0
aF0.0
aF1.0
asg64
(lp172
F0.0
aF0.0
aF8.0
asg66
S'Plot'
p173
sg68
S'Axe Z'
p174
ssS'Plot1'
p175
(dp176
S'diameter'
p177
F1.1
sS'center'
p178
(lp179
F0.0
aF0.0
aF1.2
asS'length'
p180
F2.4
sS'shape'
p181
S'cylinder'
p182
sS'vector'
p183
(lp184
F0.0
aF0.0
aF1.0
asS'position'
p185
(lp186
F0.0
aF0.0
aF0.0
asS'type'
p187
S'Plot'
p188
sS'axis'
p189
S'Axe Z'
p190
ssS'Plot6'
p191
(dp192
g56
F1.1
sg57
(lp193
F0.0
aF0.0
aF21.2
asg59
F2.4
sg60
g61
sg62
(lp194
F0.0
aF0.0
aF1.0
asg64
(lp195
F0.0
aF0.0
aF20.0
asg66
S'Plot'
p196
sg68
S'Axe Z'
p197
ssS'Plot7'
p198
(dp199
g56
F1.1
sg57
(lp200
F0.0
aF0.0
aF25.2
asg59
F2.4
sg60
g61
sg62
(lp201
F0.0
aF0.0
aF1.0
asg64
(lp202
F0.0
aF0.0
aF24.0
asg66
S'Plot'
p203
sg68
S'Axe Z'
p204
ssS'Plot4'
p205
(dp206
g56
F1.1
sg57
(lp207
F0.0
aF0.0
aF13.2
asg59
F2.4
sg60
g61
sg62
(lp208
F0.0
aF0.0
aF1.0
asg64
(lp209
F0.0
aF0.0
aF12.0
asg66
S'Plot'
p210
sg68
S'Axe Z'
p211
ssS'Plot5'
p212
(dp213
g56
F1.1
sg57
(lp214
F0.0
aF0.0
aF17.2
asg59
F2.4
sg60
g61
sg62
(lp215
F0.0
aF0.0
aF1.0
asg64
(lp216
F0.0
aF0.0
aF16.0
asg66
S'Plot'
p217
sg68
S'Axe Z'
p218
ss.