(dp0
S'Element 8'
p1
(dp2
S'diameter'
p3
F1.3
sS'length'
p4
F3.0
sS'vector'
p5
(lp6
F0.0
aF0.0
aF1.0
asS'center'
p7
(lp8
F0.0
aF0.0
aF46.5
asS'position'
p9
(lp10
F0.0
aF0.0
aF45.0
asS'type'
p11
S'Tube'
p12
sS'shape'
p13
S'cylinder'
p14
sS'axis'
p15
S'Axe Z'
p16
ssS'Element 10'
p17
(dp18
g3
F1.3
sg4
F50.0
sg5
(lp19
F0.0
aF0.0
aF1.0
asg7
(lp20
F0.0
aF0.0
aF76.0
asg9
(lp21
F0.0
aF0.0
aF51.0
asg11
S'Tube'
p22
sg13
g14
sg15
S'Axe Z'
p23
ssS'Plot8'
p24
(dp25
S'diameter'
p26
F1.3
sS'center'
p27
(lp28
F0.0
aF0.0
aF43.5
asS'shape'
p29
S'cylinder'
p30
sS'length'
p31
F3.0
sS'vector'
p32
(lp33
F0.0
aF0.0
aF1.0
asS'position'
p34
(lp35
F0.0
aF0.0
aF42.0
asS'type'
p36
S'Plot'
p37
sS'axis'
p38
S'Axe Z'
p39
ssS'Element 1'
p40
(dp41
g26
F1.3
sg27
(lp42
F0.0
aF0.0
aF4.5
asg29
g30
sg31
F3.0
sg32
(lp43
F0.0
aF0.0
aF1.0
asg34
(lp44
F0.0
aF0.0
aF3.0
asg36
S'Tube'
p45
sg38
S'Axe Z'
p46
ssS'Plot9'
p47
(dp48
g3
F1.3
sg4
F3.0
sg5
(lp49
F0.0
aF0.0
aF1.0
asg7
(lp50
F0.0
aF0.0
aF49.5
asg9
(lp51
F0.0
aF0.0
aF48.0
asg11
S'Plot'
p52
sg13
g14
sg15
S'Axe Z'
p53
ssS'Element 3'
p54
(dp55
g26
F1.3
sg27
(lp56
F0.0
aF0.0
aF16.5
asg29
g30
sg31
F3.0
sg32
(lp57
F0.0
aF0.0
aF1.0
asg34
(lp58
F0.0
aF0.0
aF15.0
asg36
S'Tube'
p59
sg38
S'Axe Z'
p60
ssS'Element 2'
p61
(dp62
g26
F1.3
sg27
(lp63
F0.0
aF0.0
aF10.5
asg29
g30
sg31
F3.0
sg32
(lp64
F0.0
aF0.0
aF1.0
asg34
(lp65
F0.0
aF0.0
aF9.0
asg36
S'Tube'
p66
sg38
S'Axe Z'
p67
ssS'Element 5'
p68
(dp69
g26
F1.3
sg27
(lp70
F0.0
aF0.0
aF28.5
asg29
g30
sg31
F3.0
sg32
(lp71
F0.0
aF0.0
aF1.0
asg34
(lp72
F0.0
aF0.0
aF27.0
asg36
S'Tube'
p73
sg38
S'Axe Z'
p74
ssS'Element 4'
p75
(dp76
g26
F1.3
sg27
(lp77
F0.0
aF0.0
aF22.5
asg29
g30
sg31
F3.0
sg32
(lp78
F0.0
aF0.0
aF1.0
asg34
(lp79
F0.0
aF0.0
aF21.0
asg36
S'Tube'
p80
sg38
S'Axe Z'
p81
ssS'Element 7'
p82
(dp83
g26
F1.3
sg27
(lp84
F0.0
aF0.0
aF40.5
asg29
g30
sg31
F3.0
sg32
(lp85
F0.0
aF0.0
aF1.0
asg34
(lp86
F0.0
aF0.0
aF39.0
asg36
S'Tube'
p87
sg38
S'Axe Z'
p88
ssS'Element 6'
p89
(dp90
g26
F1.3
sg27
(lp91
F0.0
aF0.0
aF34.5
asg29
g30
sg31
F3.0
sg32
(lp92
F0.0
aF0.0
aF1.0
asg34
(lp93
F0.0
aF0.0
aF33.0
asg36
S'Tube'
p94
sg38
S'Axe Z'
p95
ssS'Plot2'
p96
(dp97
g26
F1.3
sg27
(lp98
F0.0
aF0.0
aF7.5
asg29
g30
sg31
F3.0
sg32
(lp99
F0.0
aF0.0
aF1.0
asg34
(lp100
F0.0
aF0.0
aF6.0
asg36
S'Plot'
p101
sg38
S'Axe Z'
p102
ssS'Plot3'
p103
(dp104
g26
F1.3
sg27
(lp105
F0.0
aF0.0
aF13.5
asg29
g30
sg31
F3.0
sg32
(lp106
F0.0
aF0.0
aF1.0
asg34
(lp107
F0.0
aF0.0
aF12.0
asg36
S'Plot'
p108
sg38
S'Axe Z'
p109
ssS'Plot1'
p110
(dp111
g26
F1.3
sg27
(lp112
F0.0
aF0.0
aF1.5
asg29
g30
sg31
F3.0
sg32
(lp113
F0.0
aF0.0
aF1.0
asg34
(lp114
F0.0
aF0.0
aF0.0
asg36
S'Plot'
p115
sg38
S'Axe Z'
p116
ssS'Plot6'
p117
(dp118
g26
F1.3
sg27
(lp119
F0.0
aF0.0
aF31.5
asg29
g30
sg31
F3.0
sg32
(lp120
F0.0
aF0.0
aF1.0
asg34
(lp121
F0.0
aF0.0
aF30.0
asg36
S'Plot'
p122
sg38
S'Axe Z'
p123
ssS'Plot7'
p124
(dp125
g26
F1.3
sg27
(lp126
F0.0
aF0.0
aF37.5
asg29
g30
sg31
F3.0
sg32
(lp127
F0.0
aF0.0
aF1.0
asg34
(lp128
F0.0
aF0.0
aF36.0
asg36
S'Plot'
p129
sg38
S'Axe Z'
p130
ssS'Plot4'
p131
(dp132
g26
F1.3
sg27
(lp133
F0.0
aF0.0
aF19.5
asg29
g30
sg31
F3.0
sg32
(lp134
F0.0
aF0.0
aF1.0
asg34
(lp135
F0.0
aF0.0
aF18.0
asg36
S'Plot'
p136
sg38
S'Axe Z'
p137
ssS'Plot5'
p138
(dp139
g26
F1.3
sg27
(lp140
F0.0
aF0.0
aF25.5
asg29
g30
sg31
F3.0
sg32
(lp141
F0.0
aF0.0
aF1.0
asg34
(lp142
F0.0
aF0.0
aF24.0
asg36
S'Plot'
p143
sg38
S'Axe Z'
p144
ss.