(dp0
S'Plot10'
p1
(dp2
S'diameter'
p3
F1.1
sS'length'
p4
F2.4
sS'vector'
p5
(lp6
F0.0
aF0.0
aF1.0
asS'center'
p7
(lp8
F0.0
aF0.0
aF37.2
asS'position'
p9
(lp10
F0.0
aF0.0
aF36.0
asS'type'
p11
S'Plot'
p12
sS'shape'
p13
S'cylinder'
p14
sS'axis'
p15
S'Axe Z'
p16
ssS'Plot11'
p17
(dp18
g3
F1.1
sg4
F2.4
sg5
(lp19
F0.0
aF0.0
aF1.0
asg7
(lp20
F0.0
aF0.0
aF41.2
asg9
(lp21
F0.0
aF0.0
aF40.0
asg11
S'Plot'
p22
sg13
g14
sg15
S'Axe Z'
p23
ssS'Element 1'
p24
(dp25
S'diameter'
p26
F1.1
sS'center'
p27
(lp28
F0.0
aF0.0
aF3.2
asS'shape'
p29
S'cylinder'
p30
sS'length'
p31
F1.6
sS'vector'
p32
(lp33
F0.0
aF0.0
aF1.0
asS'position'
p34
(lp35
F0.0
aF0.0
aF2.4
asS'type'
p36
S'Tube'
p37
sS'axis'
p38
S'Axe Z'
p39
ssS'Element 3'
p40
(dp41
g26
F1.1
sg27
(lp42
F0.0
aF0.0
aF11.200000000000001
asg29
g30
sg31
F1.6
sg32
(lp43
F0.0
aF0.0
aF1.0
asg34
(lp44
F0.0
aF0.0
aF10.4
asg36
S'Tube'
p45
sg38
S'Axe Z'
p46
ssS'Element 2'
p47
(dp48
g26
F1.1
sg27
(lp49
F0.0
aF0.0
aF7.2
asg29
g30
sg31
F1.6
sg32
(lp50
F0.0
aF0.0
aF1.0
asg34
(lp51
F0.0
aF0.0
aF6.4
asg36
S'Tube'
p52
sg38
S'Axe Z'
p53
ssS'Element 5'
p54
(dp55
g26
F1.1
sg27
(lp56
F0.0
aF0.0
aF19.2
asg29
g30
sg31
F1.6
sg32
(lp57
F0.0
aF0.0
aF1.0
asg34
(lp58
F0.0
aF0.0
aF18.4
asg36
S'Tube'
p59
sg38
S'Axe Z'
p60
ssS'Element 4'
p61
(dp62
g26
F1.1
sg27
(lp63
F0.0
aF0.0
aF15.200000000000001
asg29
g30
sg31
F1.6
sg32
(lp64
F0.0
aF0.0
aF1.0
asg34
(lp65
F0.0
aF0.0
aF14.4
asg36
S'Tube'
p66
sg38
S'Axe Z'
p67
ssS'Element 7'
p68
(dp69
g26
F1.1
sg27
(lp70
F0.0
aF0.0
aF27.2
asg29
g30
sg31
F1.6
sg32
(lp71
F0.0
aF0.0
aF1.0
asg34
(lp72
F0.0
aF0.0
aF26.4
asg36
S'Tube'
p73
sg38
S'Axe Z'
p74
ssS'Element 6'
p75
(dp76
g26
F1.1
sg27
(lp77
F0.0
aF0.0
aF23.2
asg29
g30
sg31
F1.6
sg32
(lp78
F0.0
aF0.0
aF1.0
asg34
(lp79
F0.0
aF0.0
aF22.4
asg36
S'Tube'
p80
sg38
S'Axe Z'
p81
ssS'Element 8'
p82
(dp83
g26
F1.1
sg27
(lp84
F0.0
aF0.0
aF31.2
asg29
g30
sg31
F1.6
sg32
(lp85
F0.0
aF0.0
aF1.0
asg34
(lp86
F0.0
aF0.0
aF30.4
asg36
S'Tube'
p87
sg38
S'Axe Z'
p88
ssS'Element9'
p89
(dp90
g3
F1.1
sg4
F1.6
sg5
(lp91
F0.0
aF0.0
aF1.0
asg7
(lp92
F0.0
aF0.0
aF35.199999999999996
asg9
(lp93
F0.0
aF0.0
aF34.4
asg11
S'Tube'
p94
sg13
g14
sg15
S'Axe Z'
p95
ssS'Element 11'
p96
(dp97
g3
F1.1
sg4
F50.0
sg5
(lp98
F0.0
aF0.0
aF1.0
asg7
(lp99
F0.0
aF0.0
aF67.4
asg9
(lp100
F0.0
aF0.0
aF42.4
asg11
S'Tube'
p101
sg13
g14
sg15
S'Axe Z'
p102
ssS'Element 10'
p103
(dp104
g3
F1.1
sg4
F1.6
sg5
(lp105
F0.0
aF0.0
aF1.0
asg7
(lp106
F0.0
aF0.0
aF39.199999999999996
asg9
(lp107
F0.0
aF0.0
aF38.4
asg11
S'Tube'
p108
sg13
g14
sg15
S'Axe Z'
p109
ssS'Plot8'
p110
(dp111
g26
F1.1
sg27
(lp112
F0.0
aF0.0
aF29.2
asg29
g30
sg31
F2.4
sg32
(lp113
F0.0
aF0.0
aF1.0
asg34
(lp114
F0.0
aF0.0
aF28.0
asg36
S'Plot'
p115
sg38
S'Axe Z'
p116
ssS'Plot9'
p117
(dp118
g26
F1.1
sg27
(lp119
F0.0
aF0.0
aF33.2
asg29
g30
sg31
F2.4
sg32
(lp120
F0.0
aF0.0
aF1.0
asg34
(lp121
F0.0
aF0.0
aF32.0
asg36
S'Plot'
p122
sg38
S'Axe Z'
p123
ssS'Plot2'
p124
(dp125
g26
F1.1
sg27
(lp126
F0.0
aF0.0
aF5.2
asg29
g30
sg31
F2.4
sg32
(lp127
F0.0
aF0.0
aF1.0
asg34
(lp128
F0.0
aF0.0
aF4.0
asg36
S'Plot'
p129
sg38
S'Axe Z'
p130
ssS'Plot3'
p131
(dp132
g26
F1.1
sg27
(lp133
F0.0
aF0.0
aF9.2
asg29
g30
sg31
F2.4
sg32
(lp134
F0.0
aF0.0
aF1.0
asg34
(lp135
F0.0
aF0.0
aF8.0
asg36
S'Plot'
p136
sg38
S'Axe Z'
p137
ssS'Plot1'
p138
(dp139
S'diameter'
p140
F1.1
sS'center'
p141
(lp142
F0.0
aF0.0
aF1.2
asS'length'
p143
F2.4
sS'shape'
p144
S'cylinder'
p145
sS'vector'
p146
(lp147
F0.0
aF0.0
aF1.0
asS'position'
p148
(lp149
F0.0
aF0.0
aF0.0
asS'type'
p150
S'Plot'
p151
sS'axis'
p152
S'Axe Z'
p153
ssS'Plot6'
p154
(dp155
g26
F1.1
sg27
(lp156
F0.0
aF0.0
aF21.2
asg29
g30
sg31
F2.4
sg32
(lp157
F0.0
aF0.0
aF1.0
asg34
(lp158
F0.0
aF0.0
aF20.0
asg36
S'Plot'
p159
sg38
S'Axe Z'
p160
ssS'Plot7'
p161
(dp162
g26
F1.1
sg27
(lp163
F0.0
aF0.0
aF25.2
asg29
g30
sg31
F2.4
sg32
(lp164
F0.0
aF0.0
aF1.0
asg34
(lp165
F0.0
aF0.0
aF24.0
asg36
S'Plot'
p166
sg38
S'Axe Z'
p167
ssS'Plot4'
p168
(dp169
g26
F1.1
sg27
(lp170
F0.0
aF0.0
aF13.2
asg29
g30
sg31
F2.4
sg32
(lp171
F0.0
aF0.0
aF1.0
asg34
(lp172
F0.0
aF0.0
aF12.0
asg36
S'Plot'
p173
sg38
S'Axe Z'
p174
ssS'Plot5'
p175
(dp176
g26
F1.1
sg27
(lp177
F0.0
aF0.0
aF17.2
asg29
g30
sg31
F2.4
sg32
(lp178
F0.0
aF0.0
aF1.0
asg34
(lp179
F0.0
aF0.0
aF16.0
asg36
S'Plot'
p180
sg38
S'Axe Z'
p181
ss.