(dp0
S'Element 10'
p1
(dp2
S'diameter'
p3
F1.1
sS'length'
p4
F50.0
sS'vector'
p5
(lp6
F0.0
aF0.0
aF1.0
asS'center'
p7
(lp8
F0.0
aF0.0
aF75.1
asS'position'
p9
(lp10
F0.0
aF0.0
aF50.1
asS'type'
p11
S'Tube'
p12
sS'shape'
p13
S'cylinder'
p14
sS'axis'
p15
S'Axe Z'
p16
ssS'Element 9'
p17
(dp18
g3
F1.1
sg4
F2.9
sg5
(lp19
F0.0
aF0.0
aF1.0
asg7
(lp20
F0.0
aF0.0
aF46.25
asg9
(lp21
F0.0
aF0.0
aF44.8
asg11
S'Tube'
p22
sg13
g14
sg15
S'Axe Z'
p23
ssS'Plot3'
p24
(dp25
S'diameter'
p26
F1.1
sS'center'
p27
(lp28
F0.0
aF0.0
aF11.799999999999999
asS'shape'
p29
S'cylinder'
p30
sS'length'
p31
F2.4
sS'vector'
p32
(lp33
F0.0
aF0.0
aF1.0
asS'position'
p34
(lp35
F0.0
aF0.0
aF10.6
asS'type'
p36
S'Plot'
p37
sS'axis'
p38
S'Axe Z'
p39
ssS'Plot10'
p40
(dp41
g3
F1.1
sg4
F2.4
sg5
(lp42
F0.0
aF0.0
aF1.0
asg7
(lp43
F0.0
aF0.0
aF48.900000000000006
asg9
(lp44
F0.0
aF0.0
aF47.7
asg11
S'Plot'
p45
sg13
g14
sg15
S'Axe Z'
p46
ssS'Element 3'
p47
(dp48
g26
F1.1
sg27
(lp49
F0.0
aF0.0
aF14.45
asg29
g30
sg31
F2.9
sg32
(lp50
F0.0
aF0.0
aF1.0
asg34
(lp51
F0.0
aF0.0
aF13.0
asg36
S'Tube'
p52
sg38
S'Axe Z'
p53
ssS'Element 1'
p54
(dp55
g26
F1.1
sg27
(lp56
F0.0
aF0.0
aF3.8499999999999996
asg29
g30
sg31
F2.9
sg32
(lp57
F0.0
aF0.0
aF1.0
asg34
(lp58
F0.0
aF0.0
aF2.4
asg36
S'Tube'
p59
sg38
S'Axe Z'
p60
ssS'Plot9'
p61
(dp62
g3
F1.1
sg4
F2.4
sg5
(lp63
F0.0
aF0.0
aF1.0
asg7
(lp64
F0.0
aF0.0
aF43.6
asg9
(lp65
F0.0
aF0.0
aF42.4
asg11
S'Plot'
p66
sg13
g14
sg15
S'Axe Z'
p67
ssS'Plot8'
p68
(dp69
g26
F1.1
sg27
(lp70
F0.0
aF0.0
aF38.300000000000004
asg29
g30
sg31
F2.4
sg32
(lp71
F0.0
aF0.0
aF1.0
asg34
(lp72
F0.0
aF0.0
aF37.1
asg36
S'Plot'
p73
sg38
S'Axe Z'
p74
ssS'Element 2'
p75
(dp76
g26
F1.1
sg27
(lp77
F0.0
aF0.0
aF9.15
asg29
g30
sg31
F2.9
sg32
(lp78
F0.0
aF0.0
aF1.0
asg34
(lp79
F0.0
aF0.0
aF7.7
asg36
S'Tube'
p80
sg38
S'Axe Z'
p81
ssS'Element 5'
p82
(dp83
g26
F1.1
sg27
(lp84
F0.0
aF0.0
aF25.05
asg29
g30
sg31
F2.9
sg32
(lp85
F0.0
aF0.0
aF1.0
asg34
(lp86
F0.0
aF0.0
aF23.6
asg36
S'Tube'
p87
sg38
S'Axe Z'
p88
ssS'Element 4'
p89
(dp90
g26
F1.1
sg27
(lp91
F0.0
aF0.0
aF19.75
asg29
g30
sg31
F2.9
sg32
(lp92
F0.0
aF0.0
aF1.0
asg34
(lp93
F0.0
aF0.0
aF18.3
asg36
S'Tube'
p94
sg38
S'Axe Z'
p95
ssS'Element 7'
p96
(dp97
g26
F1.1
sg27
(lp98
F0.0
aF0.0
aF35.650000000000006
asg29
g30
sg31
F2.9
sg32
(lp99
F0.0
aF0.0
aF1.0
asg34
(lp100
F0.0
aF0.0
aF34.2
asg36
S'Tube'
p101
sg38
S'Axe Z'
p102
ssS'Element 6'
p103
(dp104
g26
F1.1
sg27
(lp105
F0.0
aF0.0
aF30.349999999999998
asg29
g30
sg31
F2.9
sg32
(lp106
F0.0
aF0.0
aF1.0
asg34
(lp107
F0.0
aF0.0
aF28.9
asg36
S'Tube'
p108
sg38
S'Axe Z'
p109
ssS'Plot2'
p110
(dp111
g26
F1.1
sg27
(lp112
F0.0
aF0.0
aF6.5
asg29
g30
sg31
F2.4
sg32
(lp113
F0.0
aF0.0
aF1.0
asg34
(lp114
F0.0
aF0.0
aF5.3
asg36
S'Plot'
p115
sg38
S'Axe Z'
p116
ssS'Element 8'
p117
(dp118
g3
F1.1
sg4
F2.9
sg5
(lp119
F0.0
aF0.0
aF1.0
asg7
(lp120
F0.0
aF0.0
aF40.95
asg9
(lp121
F0.0
aF0.0
aF39.5
asg11
S'Tube'
p122
sg13
g14
sg15
S'Axe Z'
p123
ssS'Plot1'
p124
(dp125
g26
F1.1
sg27
(lp126
F0.0
aF0.0
aF1.2
asg29
g30
sg31
F2.4
sg32
(lp127
F0.0
aF0.0
aF1.0
asg34
(lp128
F0.0
aF0.0
aF0.0
asg36
S'Plot'
p129
sg38
S'Axe Z'
p130
ssS'Plot6'
p131
(dp132
g26
F1.1
sg27
(lp133
F0.0
aF0.0
aF27.7
asg29
g30
sg31
F2.4
sg32
(lp134
F0.0
aF0.0
aF1.0
asg34
(lp135
F0.0
aF0.0
aF26.5
asg36
S'Plot'
p136
sg38
S'Axe Z'
p137
ssS'Plot7'
p138
(dp139
g26
F1.1
sg27
(lp140
F0.0
aF0.0
aF33.0
asg29
g30
sg31
F2.4
sg32
(lp141
F0.0
aF0.0
aF1.0
asg34
(lp142
F0.0
aF0.0
aF31.8
asg36
S'Plot'
p143
sg38
S'Axe Z'
p144
ssS'Plot4'
p145
(dp146
g26
F1.1
sg27
(lp147
F0.0
aF0.0
aF17.1
asg29
g30
sg31
F2.4
sg32
(lp148
F0.0
aF0.0
aF1.0
asg34
(lp149
F0.0
aF0.0
aF15.9
asg36
S'Plot'
p150
sg38
S'Axe Z'
p151
ssS'Plot5'
p152
(dp153
g26
F1.1
sg27
(lp154
F0.0
aF0.0
aF22.4
asg29
g30
sg31
F2.4
sg32
(lp155
F0.0
aF0.0
aF1.0
asg34
(lp156
F0.0
aF0.0
aF21.2
asg36
S'Plot'
p157
sg38
S'Axe Z'
p158
ss.