(dp0
S'Plot9'
p1
(dp2
S'diameter'
p3
F1.1
sS'length'
p4
F2.4
sS'vector'
p5
(lp6
F0.0
aF0.0
aF1.0
asS'center'
p7
(lp8
F0.0
aF0.0
aF36.400000000000006
asS'position'
p9
(lp10
F0.0
aF0.0
aF35.2
asS'type'
p11
S'Plot'
p12
sS'shape'
p13
S'cylinder'
p14
sS'axis'
p15
S'Axe Z'
p16
ssS'Element9'
p17
(dp18
S'diameter'
p19
F1.1
sS'center'
p20
(lp21
F0.0
aF0.0
aF38.6
asS'shape'
p22
S'cylinder'
p23
sS'length'
p24
F2.0
sS'vector'
p25
(lp26
F0.0
aF0.0
aF1.0
asS'position'
p27
(lp28
F0.0
aF0.0
aF37.6
asS'type'
p29
S'Tube'
p30
sS'axis'
p31
S'Axe Z'
p32
ssS'Plot3'
p33
(dp34
g19
F1.1
sg20
(lp35
F0.0
aF0.0
aF10.0
asg22
g23
sg24
F2.4
sg25
(lp36
F0.0
aF0.0
aF1.0
asg27
(lp37
F0.0
aF0.0
aF8.8
asg29
S'Plot'
p38
sg31
S'Axe Z'
p39
ssS'Plot10'
p40
(dp41
g19
F1.1
sg20
(lp42
F0.0
aF0.0
aF40.800000000000004
asg22
g23
sg24
F2.4
sg25
(lp43
F0.0
aF0.0
aF1.0
asg27
(lp44
F0.0
aF0.0
aF39.6
asg29
S'Plot'
p45
sg31
S'Axe Z'
p46
ssS'Element 1'
p47
(dp48
g19
F1.1
sg20
(lp49
F0.0
aF0.0
aF3.4
asg22
g23
sg24
F2.0
sg25
(lp50
F0.0
aF0.0
aF1.0
asg27
(lp51
F0.0
aF0.0
aF2.4
asg29
S'Tube'
p52
sg31
S'Axe Z'
p53
ssS'Element 10'
p54
(dp55
g19
F1.1
sg20
(lp56
F0.0
aF0.0
aF67.0
asg22
g23
sg24
F50.0
sg25
(lp57
F0.0
aF0.0
aF1.0
asg27
(lp58
F0.0
aF0.0
aF42.0
asg29
S'Tube'
p59
sg31
S'Axe Z'
p60
ssS'Element 3'
p61
(dp62
g19
F1.1
sg20
(lp63
F0.0
aF0.0
aF12.2
asg22
g23
sg24
F2.0
sg25
(lp64
F0.0
aF0.0
aF1.0
asg27
(lp65
F0.0
aF0.0
aF11.2
asg29
S'Tube'
p66
sg31
S'Axe Z'
p67
ssS'Element 2'
p68
(dp69
g19
F1.1
sg20
(lp70
F0.0
aF0.0
aF7.8
asg22
g23
sg24
F2.0
sg25
(lp71
F0.0
aF0.0
aF1.0
asg27
(lp72
F0.0
aF0.0
aF6.8
asg29
S'Tube'
p73
sg31
S'Axe Z'
p74
ssS'Element 5'
p75
(dp76
g19
F1.1
sg20
(lp77
F0.0
aF0.0
aF21.0
asg22
g23
sg24
F2.0
sg25
(lp78
F0.0
aF0.0
aF1.0
asg27
(lp79
F0.0
aF0.0
aF20.0
asg29
S'Tube'
p80
sg31
S'Axe Z'
p81
ssS'Element 4'
p82
(dp83
g19
F1.1
sg20
(lp84
F0.0
aF0.0
aF16.6
asg22
g23
sg24
F2.0
sg25
(lp85
F0.0
aF0.0
aF1.0
asg27
(lp86
F0.0
aF0.0
aF15.6
asg29
S'Tube'
p87
sg31
S'Axe Z'
p88
ssS'Element 7'
p89
(dp90
g19
F1.1
sg20
(lp91
F0.0
aF0.0
aF29.8
asg22
g23
sg24
F2.0
sg25
(lp92
F0.0
aF0.0
aF1.0
asg27
(lp93
F0.0
aF0.0
aF28.8
asg29
S'Tube'
p94
sg31
S'Axe Z'
p95
ssS'Element 6'
p96
(dp97
g19
F1.1
sg20
(lp98
F0.0
aF0.0
aF25.4
asg22
g23
sg24
F2.0
sg25
(lp99
F0.0
aF0.0
aF1.0
asg27
(lp100
F0.0
aF0.0
aF24.4
asg29
S'Tube'
p101
sg31
S'Axe Z'
p102
ssS'Plot2'
p103
(dp104
g19
F1.1
sg20
(lp105
F0.0
aF0.0
aF5.6000000000000005
asg22
g23
sg24
F2.4
sg25
(lp106
F0.0
aF0.0
aF1.0
asg27
(lp107
F0.0
aF0.0
aF4.4
asg29
S'Plot'
p108
sg31
S'Axe Z'
p109
ssS'Element 8'
p110
(dp111
g19
F1.1
sg20
(lp112
F0.0
aF0.0
aF34.2
asg22
g23
sg24
F2.0
sg25
(lp113
F0.0
aF0.0
aF1.0
asg27
(lp114
F0.0
aF0.0
aF33.2
asg29
S'Tube'
p115
sg31
S'Axe Z'
p116
ssS'Plot8'
p117
(dp118
g19
F1.1
sg20
(lp119
F0.0
aF0.0
aF32.0
asg22
g23
sg24
F2.4
sg25
(lp120
F0.0
aF0.0
aF1.0
asg27
(lp121
F0.0
aF0.0
aF30.8
asg29
S'Plot'
p122
sg31
S'Axe Z'
p123
ssS'Plot1'
p124
(dp125
S'diameter'
p126
F1.1
sS'center'
p127
(lp128
F0.0
aF0.0
aF1.2
asS'length'
p129
F2.4
sS'shape'
p130
S'cylinder'
p131
sS'vector'
p132
(lp133
F0.0
aF0.0
aF1.0
asS'position'
p134
(lp135
F0.0
aF0.0
aF0.0
asS'type'
p136
S'Plot'
p137
sS'axis'
p138
S'Axe Z'
p139
ssS'Plot6'
p140
(dp141
g19
F1.1
sg20
(lp142
F0.0
aF0.0
aF23.2
asg22
g23
sg24
F2.4
sg25
(lp143
F0.0
aF0.0
aF1.0
asg27
(lp144
F0.0
aF0.0
aF22.0
asg29
S'Plot'
p145
sg31
S'Axe Z'
p146
ssS'Plot7'
p147
(dp148
g19
F1.1
sg20
(lp149
F0.0
aF0.0
aF27.599999999999998
asg22
g23
sg24
F2.4
sg25
(lp150
F0.0
aF0.0
aF1.0
asg27
(lp151
F0.0
aF0.0
aF26.4
asg29
S'Plot'
p152
sg31
S'Axe Z'
p153
ssS'Plot4'
p154
(dp155
g19
F1.1
sg20
(lp156
F0.0
aF0.0
aF14.399999999999999
asg22
g23
sg24
F2.4
sg25
(lp157
F0.0
aF0.0
aF1.0
asg27
(lp158
F0.0
aF0.0
aF13.2
asg29
S'Plot'
p159
sg31
S'Axe Z'
p160
ssS'Plot5'
p161
(dp162
g19
F1.1
sg20
(lp163
F0.0
aF0.0
aF18.8
asg22
g23
sg24
F2.4
sg25
(lp164
F0.0
aF0.0
aF1.0
asg27
(lp165
F0.0
aF0.0
aF17.6
asg29
S'Plot'
p166
sg31
S'Axe Z'
p167
ss.