(dp0
S'Element 8'
p1
(dp2
S'diameter'
p3
F1.12
sS'length'
p4
F7.6
sS'vector'
p5
(lp6
F0.0
aF0.0
aF1.0
asS'center'
p7
(lp8
F0.0
aF0.0
aF76.2
asS'position'
p9
(lp10
F0.0
aF0.0
aF72.4
asS'type'
p11
S'Tube'
p12
sS'shape'
p13
S'cylinder'
p14
sS'axis'
p15
S'Axe Z'
p16
ssS'Element 10'
p17
(dp18
g3
F1.12
sg4
F40.0
sg5
(lp19
F0.0
aF0.0
aF1.0
asg7
(lp20
F0.0
aF0.0
aF112.4
asg9
(lp21
F0.0
aF0.0
aF92.4
asg11
S'Tube'
p22
sg13
g14
sg15
S'Axe Z'
p23
ssS'Element 9'
p24
(dp25
g3
F1.12
sg4
F7.6
sg5
(lp26
F0.0
aF0.0
aF1.0
asg7
(lp27
F0.0
aF0.0
aF86.2
asg9
(lp28
F0.0
aF0.0
aF82.4
asg11
S'Tube'
p29
sg13
g14
sg15
S'Axe Z'
p30
ssS'Plot10'
p31
(dp32
g3
F1.12
sg4
F2.4
sg5
(lp33
F0.0
aF0.0
aF1.0
asg7
(lp34
F0.0
aF0.0
aF91.2
asg9
(lp35
F0.0
aF0.0
aF90.0
asg11
S'Plot'
p36
sg13
g14
sg15
S'Axe Z'
p37
ssS'Plot8'
p38
(dp39
g3
F1.12
sg4
F2.4
sg5
(lp40
F0.0
aF0.0
aF1.0
asg7
(lp41
F0.0
aF0.0
aF71.2
asg9
(lp42
F0.0
aF0.0
aF70.0
asg11
S'Plot'
p43
sg13
g14
sg15
S'Axe Z'
p44
ssS'Element 1'
p45
(dp46
g3
F1.12
sg4
F7.6
sg5
(lp47
F0.0
aF0.0
aF1.0
asg7
(lp48
F0.0
aF0.0
aF6.199999999999999
asg9
(lp49
F0.0
aF0.0
aF2.4
asg11
S'Tube'
p50
sg13
g14
sg15
S'Axe Z'
p51
ssS'Plot9'
p52
(dp53
g3
F1.12
sg4
F2.4
sg5
(lp54
F0.0
aF0.0
aF1.0
asg7
(lp55
F0.0
aF0.0
aF81.2
asg9
(lp56
F0.0
aF0.0
aF80.0
asg11
S'Plot'
p57
sg13
g14
sg15
S'Axe Z'
p58
ssS'Element 3'
p59
(dp60
g3
F1.12
sg4
F7.6
sg5
(lp61
F0.0
aF0.0
aF1.0
asg7
(lp62
F0.0
aF0.0
aF26.2
asg9
(lp63
F0.0
aF0.0
aF22.4
asg11
S'Tube'
p64
sg13
g14
sg15
S'Axe Z'
p65
ssS'Element 2'
p66
(dp67
g3
F1.12
sg4
F7.6
sg5
(lp68
F0.0
aF0.0
aF1.0
asg7
(lp69
F0.0
aF0.0
aF16.2
asg9
(lp70
F0.0
aF0.0
aF12.4
asg11
S'Tube'
p71
sg13
g14
sg15
S'Axe Z'
p72
ssS'Element 5'
p73
(dp74
g3
F1.12
sg4
F7.6
sg5
(lp75
F0.0
aF0.0
aF1.0
asg7
(lp76
F0.0
aF0.0
aF46.199999999999996
asg9
(lp77
F0.0
aF0.0
aF42.4
asg11
S'Tube'
p78
sg13
g14
sg15
S'Axe Z'
p79
ssS'Element 4'
p80
(dp81
g3
F1.12
sg4
F7.6
sg5
(lp82
F0.0
aF0.0
aF1.0
asg7
(lp83
F0.0
aF0.0
aF36.199999999999996
asg9
(lp84
F0.0
aF0.0
aF32.4
asg11
S'Tube'
p85
sg13
g14
sg15
S'Axe Z'
p86
ssS'Element 7'
p87
(dp88
g3
F1.12
sg4
F7.6
sg5
(lp89
F0.0
aF0.0
aF1.0
asg7
(lp90
F0.0
aF0.0
aF66.2
asg9
(lp91
F0.0
aF0.0
aF62.4
asg11
S'Tube'
p92
sg13
g14
sg15
S'Axe Z'
p93
ssS'Element 6'
p94
(dp95
g3
F1.12
sg4
F7.6
sg5
(lp96
F0.0
aF0.0
aF1.0
asg7
(lp97
F0.0
aF0.0
aF56.199999999999996
asg9
(lp98
F0.0
aF0.0
aF52.4
asg11
S'Tube'
p99
sg13
g14
sg15
S'Axe Z'
p100
ssS'Plot2'
p101
(dp102
g3
F1.12
sg4
F2.4
sg5
(lp103
F0.0
aF0.0
aF1.0
asg7
(lp104
F0.0
aF0.0
aF11.2
asg9
(lp105
F0.0
aF0.0
aF10.0
asg11
S'Plot'
p106
sg13
g14
sg15
S'Axe Z'
p107
ssS'Plot3'
p108
(dp109
g3
F1.12
sg4
F2.4
sg5
(lp110
F0.0
aF0.0
aF1.0
asg7
(lp111
F0.0
aF0.0
aF21.2
asg9
(lp112
F0.0
aF0.0
aF20.0
asg11
S'Plot'
p113
sg13
g14
sg15
S'Axe Z'
p114
ssS'Plot1'
p115
(dp116
g3
F1.12
sg4
F2.4
sg5
(lp117
F0.0
aF0.0
aF1.0
asg7
(lp118
F0.0
aF0.0
aF1.2
asg9
(lp119
F0.0
aF0.0
aF0.0
asg11
S'Plot'
p120
sg13
g14
sg15
S'Axe Z'
p121
ssS'Plot6'
p122
(dp123
g3
F1.12
sg4
F2.4
sg5
(lp124
F0.0
aF0.0
aF1.0
asg7
(lp125
F0.0
aF0.0
aF51.2
asg9
(lp126
F0.0
aF0.0
aF50.0
asg11
S'Plot'
p127
sg13
g14
sg15
S'Axe Z'
p128
ssS'Plot7'
p129
(dp130
g3
F1.12
sg4
F2.4
sg5
(lp131
F0.0
aF0.0
aF1.0
asg7
(lp132
F0.0
aF0.0
aF61.2
asg9
(lp133
F0.0
aF0.0
aF60.0
asg11
S'Plot'
p134
sg13
g14
sg15
S'Axe Z'
p135
ssS'Plot4'
p136
(dp137
g3
F1.12
sg4
F2.4
sg5
(lp138
F0.0
aF0.0
aF1.0
asg7
(lp139
F0.0
aF0.0
aF31.2
asg9
(lp140
F0.0
aF0.0
aF30.0
asg11
S'Plot'
p141
sg13
g14
sg15
S'Axe Z'
p142
ssS'Plot5'
p143
(dp144
g3
F1.12
sg4
F2.4
sg5
(lp145
F0.0
aF0.0
aF1.0
asg7
(lp146
F0.0
aF0.0
aF41.2
asg9
(lp147
F0.0
aF0.0
aF40.0
asg11
S'Plot'
p148
sg13
g14
sg15
S'Axe Z'
p149
ss.