(dp0
S'Plot9'
p1
(dp2
S'diameter'
p3
F1.1
sS'length'
p4
F2.4
sS'vector'
p5
(lp6
F0.0
aF0.0
aF1.0
asS'center'
p7
(lp8
F0.0
aF0.0
aF43.6
asS'position'
p9
(lp10
F0.0
aF0.0
aF42.4
asS'type'
p11
S'Plot'
p12
sS'shape'
p13
S'cylinder'
p14
sS'axis'
p15
S'Axe Z'
p16
ssS'Plot3'
p17
(dp18
S'diameter'
p19
F1.1
sS'center'
p20
(lp21
F0.0
aF0.0
aF11.799999999999999
asS'shape'
p22
S'cylinder'
p23
sS'length'
p24
F2.4
sS'vector'
p25
(lp26
F0.0
aF0.0
aF1.0
asS'position'
p27
(lp28
F0.0
aF0.0
aF10.6
asS'type'
p29
S'Plot'
p30
sS'axis'
p31
S'Axe Z'
p32
ssS'Element 3'
p33
(dp34
g19
F1.1
sg20
(lp35
F0.0
aF0.0
aF14.45
asg22
g23
sg24
F2.9
sg25
(lp36
F0.0
aF0.0
aF1.0
asg27
(lp37
F0.0
aF0.0
aF13.0
asg29
S'Tube'
p38
sg31
S'Axe Z'
p39
ssS'Element 1'
p40
(dp41
g19
F1.1
sg20
(lp42
F0.0
aF0.0
aF3.8499999999999996
asg22
g23
sg24
F2.9
sg25
(lp43
F0.0
aF0.0
aF1.0
asg27
(lp44
F0.0
aF0.0
aF2.4
asg29
S'Tube'
p45
sg31
S'Axe Z'
p46
ssS'Element 9'
p47
(dp48
g3
F1.1
sg4
F50.0
sg5
(lp49
F0.0
aF0.0
aF1.0
asg7
(lp50
F0.0
aF0.0
aF69.8
asg9
(lp51
F0.0
aF0.0
aF44.8
asg11
S'Tube'
p52
sg13
g14
sg15
S'Axe Z'
p53
ssS'Plot8'
p54
(dp55
g19
F1.1
sg20
(lp56
F0.0
aF0.0
aF38.300000000000004
asg22
g23
sg24
F2.4
sg25
(lp57
F0.0
aF0.0
aF1.0
asg27
(lp58
F0.0
aF0.0
aF37.1
asg29
S'Plot'
p59
sg31
S'Axe Z'
p60
ssS'Element 2'
p61
(dp62
g19
F1.1
sg20
(lp63
F0.0
aF0.0
aF9.15
asg22
g23
sg24
F2.9
sg25
(lp64
F0.0
aF0.0
aF1.0
asg27
(lp65
F0.0
aF0.0
aF7.7
asg29
S'Tube'
p66
sg31
S'Axe Z'
p67
ssS'Element 5'
p68
(dp69
g19
F1.1
sg20
(lp70
F0.0
aF0.0
aF25.05
asg22
g23
sg24
F2.9
sg25
(lp71
F0.0
aF0.0
aF1.0
asg27
(lp72
F0.0
aF0.0
aF23.6
asg29
S'Tube'
p73
sg31
S'Axe Z'
p74
ssS'Element 4'
p75
(dp76
g19
F1.1
sg20
(lp77
F0.0
aF0.0
aF19.75
asg22
g23
sg24
F2.9
sg25
(lp78
F0.0
aF0.0
aF1.0
asg27
(lp79
F0.0
aF0.0
aF18.3
asg29
S'Tube'
p80
sg31
S'Axe Z'
p81
ssS'Element 7'
p82
(dp83
g19
F1.1
sg20
(lp84
F0.0
aF0.0
aF35.650000000000006
asg22
g23
sg24
F2.9
sg25
(lp85
F0.0
aF0.0
aF1.0
asg27
(lp86
F0.0
aF0.0
aF34.2
asg29
S'Tube'
p87
sg31
S'Axe Z'
p88
ssS'Element 6'
p89
(dp90
g19
F1.1
sg20
(lp91
F0.0
aF0.0
aF30.349999999999998
asg22
g23
sg24
F2.9
sg25
(lp92
F0.0
aF0.0
aF1.0
asg27
(lp93
F0.0
aF0.0
aF28.9
asg29
S'Tube'
p94
sg31
S'Axe Z'
p95
ssS'Plot2'
p96
(dp97
g19
F1.1
sg20
(lp98
F0.0
aF0.0
aF6.5
asg22
g23
sg24
F2.4
sg25
(lp99
F0.0
aF0.0
aF1.0
asg27
(lp100
F0.0
aF0.0
aF5.3
asg29
S'Plot'
p101
sg31
S'Axe Z'
p102
ssS'Element 8'
p103
(dp104
g3
F1.1
sg4
F2.9
sg5
(lp105
F0.0
aF0.0
aF1.0
asg7
(lp106
F0.0
aF0.0
aF40.95
asg9
(lp107
F0.0
aF0.0
aF39.5
asg11
S'Tube'
p108
sg13
g14
sg15
S'Axe Z'
p109
ssS'Plot1'
p110
(dp111
g19
F1.1
sg20
(lp112
F0.0
aF0.0
aF1.2
asg22
g23
sg24
F2.4
sg25
(lp113
F0.0
aF0.0
aF1.0
asg27
(lp114
F0.0
aF0.0
aF0.0
asg29
S'Plot'
p115
sg31
S'Axe Z'
p116
ssS'Plot6'
p117
(dp118
g19
F1.1
sg20
(lp119
F0.0
aF0.0
aF27.7
asg22
g23
sg24
F2.4
sg25
(lp120
F0.0
aF0.0
aF1.0
asg27
(lp121
F0.0
aF0.0
aF26.5
asg29
S'Plot'
p122
sg31
S'Axe Z'
p123
ssS'Plot7'
p124
(dp125
g19
F1.1
sg20
(lp126
F0.0
aF0.0
aF33.0
asg22
g23
sg24
F2.4
sg25
(lp127
F0.0
aF0.0
aF1.0
asg27
(lp128
F0.0
aF0.0
aF31.8
asg29
S'Plot'
p129
sg31
S'Axe Z'
p130
ssS'Plot4'
p131
(dp132
g19
F1.1
sg20
(lp133
F0.0
aF0.0
aF17.1
asg22
g23
sg24
F2.4
sg25
(lp134
F0.0
aF0.0
aF1.0
asg27
(lp135
F0.0
aF0.0
aF15.9
asg29
S'Plot'
p136
sg31
S'Axe Z'
p137
ssS'Plot5'
p138
(dp139
g19
F1.1
sg20
(lp140
F0.0
aF0.0
aF22.4
asg22
g23
sg24
F2.4
sg25
(lp141
F0.0
aF0.0
aF1.0
asg27
(lp142
F0.0
aF0.0
aF21.2
asg29
S'Plot'
p143
sg31
S'Axe Z'
p144
ss.