(dp0
S'Element 13'
p1
(dp2
S'diameter'
p3
F1.1
sS'length'
p4
F2.6
sS'vector'
p5
(lp6
F0.0
aF0.0
aF1.0
asS'center'
p7
(lp8
F0.0
aF0.0
aF63.699999999999996
asS'position'
p9
(lp10
F0.0
aF0.0
aF62.4
asS'type'
p11
S'Tube'
p12
sS'shape'
p13
S'cylinder'
p14
sS'axis'
p15
S'Axe Z'
p16
ssS'Element 12'
p17
(dp18
g3
F1.1
sg4
F2.6
sg5
(lp19
F0.0
aF0.0
aF1.0
asg7
(lp20
F0.0
aF0.0
aF58.699999999999996
asg9
(lp21
F0.0
aF0.0
aF57.4
asg11
S'Tube'
p22
sg13
g14
sg15
S'Axe Z'
p23
ssS'Plot14'
p24
(dp25
g3
F1.1
sg4
F2.4
sg5
(lp26
F0.0
aF0.0
aF1.0
asg7
(lp27
F0.0
aF0.0
aF66.2
asg9
(lp28
F0.0
aF0.0
aF65.0
asg11
S'Plot'
p29
sg13
g14
sg15
S'Axe Z'
p30
ssS'Plot10'
p31
(dp32
S'diameter'
p33
F1.1
sS'center'
p34
(lp35
F0.0
aF0.0
aF46.2
asS'shape'
p36
S'cylinder'
p37
sS'length'
p38
F2.4
sS'vector'
p39
(lp40
F0.0
aF0.0
aF1.0
asS'position'
p41
(lp42
F0.0
aF0.0
aF45.0
asS'type'
p43
S'Plot'
p44
sS'axis'
p45
S'Axe Z'
p46
ssS'Plot11'
p47
(dp48
g33
F1.1
sg34
(lp49
F0.0
aF0.0
aF51.2
asg36
g37
sg38
F2.4
sg39
(lp50
F0.0
aF0.0
aF1.0
asg41
(lp51
F0.0
aF0.0
aF50.0
asg43
S'Plot'
p52
sg45
S'Axe Z'
p53
ssS'Plot12'
p54
(dp55
g33
F1.1
sg34
(lp56
F0.0
aF0.0
aF56.2
asg36
g37
sg38
F2.4
sg39
(lp57
F0.0
aF0.0
aF1.0
asg41
(lp58
F0.0
aF0.0
aF55.0
asg43
S'Plot'
p59
sg45
S'Axe Z'
p60
ssS'Plot13'
p61
(dp62
g3
F1.1
sg4
F2.4
sg5
(lp63
F0.0
aF0.0
aF1.0
asg7
(lp64
F0.0
aF0.0
aF61.2
asg9
(lp65
F0.0
aF0.0
aF60.0
asg11
S'Plot'
p66
sg13
g14
sg15
S'Axe Z'
p67
ssS'Element 1'
p68
(dp69
g33
F1.1
sg34
(lp70
F0.0
aF0.0
aF3.7
asg36
g37
sg38
F2.6
sg39
(lp71
F0.0
aF0.0
aF1.0
asg41
(lp72
F0.0
aF0.0
aF2.4
asg43
S'Tube'
p73
sg45
S'Axe Z'
p74
ssS'Element 3'
p75
(dp76
g33
F1.1
sg34
(lp77
F0.0
aF0.0
aF13.700000000000001
asg36
g37
sg38
F2.6
sg39
(lp78
F0.0
aF0.0
aF1.0
asg41
(lp79
F0.0
aF0.0
aF12.4
asg43
S'Tube'
p80
sg45
S'Axe Z'
p81
ssS'Element 2'
p82
(dp83
g33
F1.1
sg34
(lp84
F0.0
aF0.0
aF8.700000000000001
asg36
g37
sg38
F2.6
sg39
(lp85
F0.0
aF0.0
aF1.0
asg41
(lp86
F0.0
aF0.0
aF7.4
asg43
S'Tube'
p87
sg45
S'Axe Z'
p88
ssS'Element 5'
p89
(dp90
g33
F1.1
sg34
(lp91
F0.0
aF0.0
aF23.7
asg36
g37
sg38
F2.6
sg39
(lp92
F0.0
aF0.0
aF1.0
asg41
(lp93
F0.0
aF0.0
aF22.4
asg43
S'Tube'
p94
sg45
S'Axe Z'
p95
ssS'Element 4'
p96
(dp97
g33
F1.1
sg34
(lp98
F0.0
aF0.0
aF18.7
asg36
g37
sg38
F2.6
sg39
(lp99
F0.0
aF0.0
aF1.0
asg41
(lp100
F0.0
aF0.0
aF17.4
asg43
S'Tube'
p101
sg45
S'Axe Z'
p102
ssS'Element 7'
p103
(dp104
g33
F1.1
sg34
(lp105
F0.0
aF0.0
aF33.699999999999996
asg36
g37
sg38
F2.6
sg39
(lp106
F0.0
aF0.0
aF1.0
asg41
(lp107
F0.0
aF0.0
aF32.4
asg43
S'Tube'
p108
sg45
S'Axe Z'
p109
ssS'Element 6'
p110
(dp111
g33
F1.1
sg34
(lp112
F0.0
aF0.0
aF28.7
asg36
g37
sg38
F2.6
sg39
(lp113
F0.0
aF0.0
aF1.0
asg41
(lp114
F0.0
aF0.0
aF27.4
asg43
S'Tube'
p115
sg45
S'Axe Z'
p116
ssS'Element 9'
p117
(dp118
g33
F1.1
sg34
(lp119
F0.0
aF0.0
aF43.699999999999996
asg36
g37
sg38
F2.6
sg39
(lp120
F0.0
aF0.0
aF1.0
asg41
(lp121
F0.0
aF0.0
aF42.4
asg43
S'Tube'
p122
sg45
S'Axe Z'
p123
ssS'Element 8'
p124
(dp125
g33
F1.1
sg34
(lp126
F0.0
aF0.0
aF38.699999999999996
asg36
g37
sg38
F2.6
sg39
(lp127
F0.0
aF0.0
aF1.0
asg41
(lp128
F0.0
aF0.0
aF37.4
asg43
S'Tube'
p129
sg45
S'Axe Z'
p130
ssS'Element 11'
p131
(dp132
g33
F1.1
sg34
(lp133
F0.0
aF0.0
aF53.699999999999996
asg36
g37
sg38
F2.6
sg39
(lp134
F0.0
aF0.0
aF1.0
asg41
(lp135
F0.0
aF0.0
aF52.4
asg43
S'Tube'
p136
sg45
S'Axe Z'
p137
ssS'Element 10'
p138
(dp139
g33
F1.1
sg34
(lp140
F0.0
aF0.0
aF48.699999999999996
asg36
g37
sg38
F2.6
sg39
(lp141
F0.0
aF0.0
aF1.0
asg41
(lp142
F0.0
aF0.0
aF47.4
asg43
S'Tube'
p143
sg45
S'Axe Z'
p144
ssS'Plot8'
p145
(dp146
g33
F1.1
sg34
(lp147
F0.0
aF0.0
aF36.2
asg36
g37
sg38
F2.4
sg39
(lp148
F0.0
aF0.0
aF1.0
asg41
(lp149
F0.0
aF0.0
aF35.0
asg43
S'Plot'
p150
sg45
S'Axe Z'
p151
ssS'Plot9'
p152
(dp153
g33
F1.1
sg34
(lp154
F0.0
aF0.0
aF41.2
asg36
g37
sg38
F2.4
sg39
(lp155
F0.0
aF0.0
aF1.0
asg41
(lp156
F0.0
aF0.0
aF40.0
asg43
S'Plot'
p157
sg45
S'Axe Z'
p158
ssS'Element 14'
p159
(dp160
g3
F1.1
sg4
F40.0
sg5
(lp161
F0.0
aF0.0
aF1.0
asg7
(lp162
F0.0
aF0.0
aF87.4
asg9
(lp163
F0.0
aF0.0
aF67.4
asg11
S'Tube'
p164
sg13
g14
sg15
S'Axe Z'
p165
ssS'Plot2'
p166
(dp167
g33
F1.1
sg34
(lp168
F0.0
aF0.0
aF6.2
asg36
g37
sg38
F2.4
sg39
(lp169
F0.0
aF0.0
aF1.0
asg41
(lp170
F0.0
aF0.0
aF5.0
asg43
S'Plot'
p171
sg45
S'Axe Z'
p172
ssS'Plot3'
p173
(dp174
g33
F1.1
sg34
(lp175
F0.0
aF0.0
aF11.2
asg36
g37
sg38
F2.4
sg39
(lp176
F0.0
aF0.0
aF1.0
asg41
(lp177
F0.0
aF0.0
aF10.0
asg43
S'Plot'
p178
sg45
S'Axe Z'
p179
ssS'Plot1'
p180
(dp181
g33
F1.1
sg34
(lp182
F0.0
aF0.0
aF1.2
asg36
g37
sg38
F2.4
sg39
(lp183
F0.0
aF0.0
aF1.0
asg41
(lp184
F0.0
aF0.0
aF0.0
asg43
S'Plot'
p185
sg45
S'Axe Z'
p186
ssS'Plot6'
p187
(dp188
g33
F1.1
sg34
(lp189
F0.0
aF0.0
aF26.2
asg36
g37
sg38
F2.4
sg39
(lp190
F0.0
aF0.0
aF1.0
asg41
(lp191
F0.0
aF0.0
aF25.0
asg43
S'Plot'
p192
sg45
S'Axe Z'
p193
ssS'Plot7'
p194
(dp195
g33
F1.1
sg34
(lp196
F0.0
aF0.0
aF31.2
asg36
g37
sg38
F2.4
sg39
(lp197
F0.0
aF0.0
aF1.0
asg41
(lp198
F0.0
aF0.0
aF30.0
asg43
S'Plot'
p199
sg45
S'Axe Z'
p200
ssS'Plot4'
p201
(dp202
g33
F1.1
sg34
(lp203
F0.0
aF0.0
aF16.2
asg36
g37
sg38
F2.4
sg39
(lp204
F0.0
aF0.0
aF1.0
asg41
(lp205
F0.0
aF0.0
aF15.0
asg43
S'Plot'
p206
sg45
S'Axe Z'
p207
ssS'Plot5'
p208
(dp209
g33
F1.1
sg34
(lp210
F0.0
aF0.0
aF21.2
asg36
g37
sg38
F2.4
sg39
(lp211
F0.0
aF0.0
aF1.0
asg41
(lp212
F0.0
aF0.0
aF20.0
asg43
S'Plot'
p213
sg45
S'Axe Z'
p214
ss.