(dp0
S'Plot1'
p1
(dp2
S'diameter'
p3
F1.1
sS'center'
p4
(lp5
F0.0
aF0.0
aF1.2
asS'length'
p6
F2.4
sS'shape'
p7
S'cylinder'
p8
sS'vector'
p9
(lp10
F0.0
aF0.0
aF1.0
asS'position'
p11
(lp12
F0.0
aF0.0
aF0.0
asS'type'
p13
S'Plot'
p14
sS'axis'
p15
S'Axe Z'
p16
ssS'Element 8'
p17
(dp18
S'diameter'
p19
F1.1
sS'center'
p20
(lp21
F0.0
aF0.0
aF38.699999999999996
asS'shape'
p22
S'cylinder'
p23
sS'length'
p24
F2.6
sS'vector'
p25
(lp26
F0.0
aF0.0
aF1.0
asS'position'
p27
(lp28
F0.0
aF0.0
aF37.4
asS'type'
p29
S'Tube'
p30
sS'axis'
p31
S'Axe Z'
p32
ssS'Element9'
p33
(dp34
S'diameter'
p35
F1.1
sS'length'
p36
F2.6
sS'vector'
p37
(lp38
F0.0
aF0.0
aF1.0
asS'center'
p39
(lp40
F0.0
aF0.0
aF43.699999999999996
asS'position'
p41
(lp42
F0.0
aF0.0
aF42.4
asS'type'
p43
S'Tube'
p44
sS'shape'
p45
S'cylinder'
p46
sS'axis'
p47
S'Axe Z'
p48
ssS'Plot10'
p49
(dp50
g35
F1.1
sg36
F2.4
sg37
(lp51
F0.0
aF0.0
aF1.0
asg39
(lp52
F0.0
aF0.0
aF46.2
asg41
(lp53
F0.0
aF0.0
aF45.0
asg43
S'Plot'
p54
sg45
g46
sg47
S'Axe Z'
p55
ssS'Element 3'
p56
(dp57
g19
F1.1
sg20
(lp58
F0.0
aF0.0
aF13.700000000000001
asg22
g23
sg24
F2.6
sg25
(lp59
F0.0
aF0.0
aF1.0
asg27
(lp60
F0.0
aF0.0
aF12.4
asg29
S'Tube'
p61
sg31
S'Axe Z'
p62
ssS'Element 1'
p63
(dp64
g19
F1.1
sg20
(lp65
F0.0
aF0.0
aF3.7
asg22
g23
sg24
F2.6
sg25
(lp66
F0.0
aF0.0
aF1.0
asg27
(lp67
F0.0
aF0.0
aF2.4
asg29
S'Tube'
p68
sg31
S'Axe Z'
p69
ssS'Element 10'
p70
(dp71
g35
F1.1
sg36
F50.0
sg37
(lp72
F0.0
aF0.0
aF1.0
asg39
(lp73
F0.0
aF0.0
aF72.4
asg41
(lp74
F0.0
aF0.0
aF47.4
asg43
S'Tube'
p75
sg45
g46
sg47
S'Axe Z'
p76
ssS'Plot8'
p77
(dp78
g19
F1.1
sg20
(lp79
F0.0
aF0.0
aF36.2
asg22
g23
sg24
F2.4
sg25
(lp80
F0.0
aF0.0
aF1.0
asg27
(lp81
F0.0
aF0.0
aF35.0
asg29
S'Plot'
p82
sg31
S'Axe Z'
p83
ssS'Plot9'
p84
(dp85
g19
F1.1
sg20
(lp86
F0.0
aF0.0
aF41.2
asg22
g23
sg24
F2.4
sg25
(lp87
F0.0
aF0.0
aF1.0
asg27
(lp88
F0.0
aF0.0
aF40.0
asg29
S'Plot'
p89
sg31
S'Axe Z'
p90
ssS'Element 5'
p91
(dp92
g19
F1.1
sg20
(lp93
F0.0
aF0.0
aF23.7
asg22
g23
sg24
F2.6
sg25
(lp94
F0.0
aF0.0
aF1.0
asg27
(lp95
F0.0
aF0.0
aF22.4
asg29
S'Tube'
p96
sg31
S'Axe Z'
p97
ssS'Element 4'
p98
(dp99
g19
F1.1
sg20
(lp100
F0.0
aF0.0
aF18.7
asg22
g23
sg24
F2.6
sg25
(lp101
F0.0
aF0.0
aF1.0
asg27
(lp102
F0.0
aF0.0
aF17.4
asg29
S'Tube'
p103
sg31
S'Axe Z'
p104
ssS'Element 7'
p105
(dp106
g19
F1.1
sg20
(lp107
F0.0
aF0.0
aF33.699999999999996
asg22
g23
sg24
F2.6
sg25
(lp108
F0.0
aF0.0
aF1.0
asg27
(lp109
F0.0
aF0.0
aF32.4
asg29
S'Tube'
p110
sg31
S'Axe Z'
p111
ssS'Element 6'
p112
(dp113
g19
F1.1
sg20
(lp114
F0.0
aF0.0
aF28.7
asg22
g23
sg24
F2.6
sg25
(lp115
F0.0
aF0.0
aF1.0
asg27
(lp116
F0.0
aF0.0
aF27.4
asg29
S'Tube'
p117
sg31
S'Axe Z'
p118
ssS'Plot2'
p119
(dp120
g19
F1.1
sg20
(lp121
F0.0
aF0.0
aF6.2
asg22
g23
sg24
F2.4
sg25
(lp122
F0.0
aF0.0
aF1.0
asg27
(lp123
F0.0
aF0.0
aF5.0
asg29
S'Plot'
p124
sg31
S'Axe Z'
p125
ssS'Plot3'
p126
(dp127
g19
F1.1
sg20
(lp128
F0.0
aF0.0
aF11.2
asg22
g23
sg24
F2.4
sg25
(lp129
F0.0
aF0.0
aF1.0
asg27
(lp130
F0.0
aF0.0
aF10.0
asg29
S'Plot'
p131
sg31
S'Axe Z'
p132
ssS'Element 2'
p133
(dp134
g19
F1.1
sg20
(lp135
F0.0
aF0.0
aF8.700000000000001
asg22
g23
sg24
F2.6
sg25
(lp136
F0.0
aF0.0
aF1.0
asg27
(lp137
F0.0
aF0.0
aF7.4
asg29
S'Tube'
p138
sg31
S'Axe Z'
p139
ssS'Plot6'
p140
(dp141
g19
F1.1
sg20
(lp142
F0.0
aF0.0
aF26.2
asg22
g23
sg24
F2.4
sg25
(lp143
F0.0
aF0.0
aF1.0
asg27
(lp144
F0.0
aF0.0
aF25.0
asg29
S'Plot'
p145
sg31
S'Axe Z'
p146
ssS'Plot7'
p147
(dp148
g19
F1.1
sg20
(lp149
F0.0
aF0.0
aF31.2
asg22
g23
sg24
F2.4
sg25
(lp150
F0.0
aF0.0
aF1.0
asg27
(lp151
F0.0
aF0.0
aF30.0
asg29
S'Plot'
p152
sg31
S'Axe Z'
p153
ssS'Plot4'
p154
(dp155
g19
F1.1
sg20
(lp156
F0.0
aF0.0
aF16.2
asg22
g23
sg24
F2.4
sg25
(lp157
F0.0
aF0.0
aF1.0
asg27
(lp158
F0.0
aF0.0
aF15.0
asg29
S'Plot'
p159
sg31
S'Axe Z'
p160
ssS'Plot5'
p161
(dp162
g19
F1.1
sg20
(lp163
F0.0
aF0.0
aF21.2
asg22
g23
sg24
F2.4
sg25
(lp164
F0.0
aF0.0
aF1.0
asg27
(lp165
F0.0
aF0.0
aF20.0
asg29
S'Plot'
p166
sg31
S'Axe Z'
p167
ss.