(dp0
S'Element 13'
p1
(dp2
S'diameter'
p3
F1.1
sS'length'
p4
F50.0
sS'vector'
p5
(lp6
F0.0
aF0.0
aF1.0
asS'center'
p7
(lp8
F0.0
aF0.0
aF81.4
asS'position'
p9
(lp10
F0.0
aF0.0
aF56.4
asS'type'
p11
S'Tube'
p12
sS'shape'
p13
S'cylinder'
p14
sS'axis'
p15
S'Axe Z'
p16
ssS'Element 12'
p17
(dp18
g3
F1.1
sg4
F2.1
sg5
(lp19
F0.0
aF0.0
aF1.0
asg7
(lp20
F0.0
aF0.0
aF52.949999999999996
asg9
(lp21
F0.0
aF0.0
aF51.9
asg11
S'Tube'
p22
sg13
g14
sg15
S'Axe Z'
p23
ssS'Plot10'
p24
(dp25
S'diameter'
p26
F1.1
sS'center'
p27
(lp28
F0.0
aF0.0
aF41.7
asS'shape'
p29
S'cylinder'
p30
sS'length'
p31
F2.4
sS'vector'
p32
(lp33
F0.0
aF0.0
aF1.0
asS'position'
p34
(lp35
F0.0
aF0.0
aF40.5
asS'type'
p36
S'Plot'
p37
sS'axis'
p38
S'Axe Z'
p39
ssS'Plot11'
p40
(dp41
g26
F1.1
sg27
(lp42
F0.0
aF0.0
aF46.2
asg29
g30
sg31
F2.4
sg32
(lp43
F0.0
aF0.0
aF1.0
asg34
(lp44
F0.0
aF0.0
aF45.0
asg36
S'Plot'
p45
sg38
S'Axe Z'
p46
ssS'Plot12'
p47
(dp48
g3
F1.1
sg4
F2.4
sg5
(lp49
F0.0
aF0.0
aF1.0
asg7
(lp50
F0.0
aF0.0
aF50.7
asg9
(lp51
F0.0
aF0.0
aF49.5
asg11
S'Plot'
p52
sg13
g14
sg15
S'Axe Z'
p53
ssS'Plot13'
p54
(dp55
g3
F1.1
sg4
F2.4
sg5
(lp56
F0.0
aF0.0
aF1.0
asg7
(lp57
F0.0
aF0.0
aF55.1
asg9
(lp58
F0.0
aF0.0
aF53.9
asg11
S'Plot'
p59
sg13
g14
sg15
S'Axe Z'
p60
ssS'Element 1'
p61
(dp62
g26
F1.1
sg27
(lp63
F0.0
aF0.0
aF3.45
asg29
g30
sg31
F2.1
sg32
(lp64
F0.0
aF0.0
aF1.0
asg34
(lp65
F0.0
aF0.0
aF2.4
asg36
S'Tube'
p66
sg38
S'Axe Z'
p67
ssS'Element 3'
p68
(dp69
g26
F1.1
sg27
(lp70
F0.0
aF0.0
aF12.450000000000001
asg29
g30
sg31
F2.1
sg32
(lp71
F0.0
aF0.0
aF1.0
asg34
(lp72
F0.0
aF0.0
aF11.4
asg36
S'Tube'
p73
sg38
S'Axe Z'
p74
ssS'Element 2'
p75
(dp76
g26
F1.1
sg27
(lp77
F0.0
aF0.0
aF7.95
asg29
g30
sg31
F2.1
sg32
(lp78
F0.0
aF0.0
aF1.0
asg34
(lp79
F0.0
aF0.0
aF6.9
asg36
S'Tube'
p80
sg38
S'Axe Z'
p81
ssS'Element 5'
p82
(dp83
g26
F1.1
sg27
(lp84
F0.0
aF0.0
aF21.45
asg29
g30
sg31
F2.1
sg32
(lp85
F0.0
aF0.0
aF1.0
asg34
(lp86
F0.0
aF0.0
aF20.4
asg36
S'Tube'
p87
sg38
S'Axe Z'
p88
ssS'Element 4'
p89
(dp90
g26
F1.1
sg27
(lp91
F0.0
aF0.0
aF16.95
asg29
g30
sg31
F2.1
sg32
(lp92
F0.0
aF0.0
aF1.0
asg34
(lp93
F0.0
aF0.0
aF15.9
asg36
S'Tube'
p94
sg38
S'Axe Z'
p95
ssS'Element 7'
p96
(dp97
g26
F1.1
sg27
(lp98
F0.0
aF0.0
aF30.45
asg29
g30
sg31
F2.1
sg32
(lp99
F0.0
aF0.0
aF1.0
asg34
(lp100
F0.0
aF0.0
aF29.4
asg36
S'Tube'
p101
sg38
S'Axe Z'
p102
ssS'Element 6'
p103
(dp104
g26
F1.1
sg27
(lp105
F0.0
aF0.0
aF25.95
asg29
g30
sg31
F2.1
sg32
(lp106
F0.0
aF0.0
aF1.0
asg34
(lp107
F0.0
aF0.0
aF24.9
asg36
S'Tube'
p108
sg38
S'Axe Z'
p109
ssS'Element 8'
p110
(dp111
g26
F1.1
sg27
(lp112
F0.0
aF0.0
aF34.949999999999996
asg29
g30
sg31
F2.1
sg32
(lp113
F0.0
aF0.0
aF1.0
asg34
(lp114
F0.0
aF0.0
aF33.9
asg36
S'Tube'
p115
sg38
S'Axe Z'
p116
ssS'Element9'
p117
(dp118
g26
F1.1
sg27
(lp119
F0.0
aF0.0
aF39.449999999999996
asg29
g30
sg31
F2.1
sg32
(lp120
F0.0
aF0.0
aF1.0
asg34
(lp121
F0.0
aF0.0
aF38.4
asg36
S'Tube'
p122
sg38
S'Axe Z'
p123
ssS'Element 11'
p124
(dp125
g3
F1.1
sg4
F2.1
sg5
(lp126
F0.0
aF0.0
aF1.0
asg7
(lp127
F0.0
aF0.0
aF48.449999999999996
asg9
(lp128
F0.0
aF0.0
aF47.4
asg11
S'Tube'
p129
sg13
g14
sg15
S'Axe Z'
p130
ssS'Element 10'
p131
(dp132
g26
F1.1
sg27
(lp133
F0.0
aF0.0
aF43.949999999999996
asg29
g30
sg31
F2.1
sg32
(lp134
F0.0
aF0.0
aF1.0
asg34
(lp135
F0.0
aF0.0
aF42.9
asg36
S'Tube'
p136
sg38
S'Axe Z'
p137
ssS'Plot8'
p138
(dp139
g26
F1.1
sg27
(lp140
F0.0
aF0.0
aF32.7
asg29
g30
sg31
F2.4
sg32
(lp141
F0.0
aF0.0
aF1.0
asg34
(lp142
F0.0
aF0.0
aF31.5
asg36
S'Plot'
p143
sg38
S'Axe Z'
p144
ssS'Plot9'
p145
(dp146
g26
F1.1
sg27
(lp147
F0.0
aF0.0
aF37.2
asg29
g30
sg31
F2.4
sg32
(lp148
F0.0
aF0.0
aF1.0
asg34
(lp149
F0.0
aF0.0
aF36.0
asg36
S'Plot'
p150
sg38
S'Axe Z'
p151
ssS'Plot2'
p152
(dp153
g26
F1.1
sg27
(lp154
F0.0
aF0.0
aF5.7
asg29
g30
sg31
F2.4
sg32
(lp155
F0.0
aF0.0
aF1.0
asg34
(lp156
F0.0
aF0.0
aF4.5
asg36
S'Plot'
p157
sg38
S'Axe Z'
p158
ssS'Plot3'
p159
(dp160
g26
F1.1
sg27
(lp161
F0.0
aF0.0
aF10.2
asg29
g30
sg31
F2.4
sg32
(lp162
F0.0
aF0.0
aF1.0
asg34
(lp163
F0.0
aF0.0
aF9.0
asg36
S'Plot'
p164
sg38
S'Axe Z'
p165
ssS'Plot1'
p166
(dp167
S'diameter'
p168
F1.1
sS'center'
p169
(lp170
F0.0
aF0.0
aF1.2
asS'length'
p171
F2.4
sS'shape'
p172
S'cylinder'
p173
sS'vector'
p174
(lp175
F0.0
aF0.0
aF1.0
asS'position'
p176
(lp177
F0.0
aF0.0
aF0.0
asS'type'
p178
S'Plot'
p179
sS'axis'
p180
S'Axe Z'
p181
ssS'Plot6'
p182
(dp183
g26
F1.1
sg27
(lp184
F0.0
aF0.0
aF23.7
asg29
g30
sg31
F2.4
sg32
(lp185
F0.0
aF0.0
aF1.0
asg34
(lp186
F0.0
aF0.0
aF22.5
asg36
S'Plot'
p187
sg38
S'Axe Z'
p188
ssS'Plot7'
p189
(dp190
g26
F1.1
sg27
(lp191
F0.0
aF0.0
aF28.2
asg29
g30
sg31
F2.4
sg32
(lp192
F0.0
aF0.0
aF1.0
asg34
(lp193
F0.0
aF0.0
aF27.0
asg36
S'Plot'
p194
sg38
S'Axe Z'
p195
ssS'Plot4'
p196
(dp197
g26
F1.1
sg27
(lp198
F0.0
aF0.0
aF14.7
asg29
g30
sg31
F2.4
sg32
(lp199
F0.0
aF0.0
aF1.0
asg34
(lp200
F0.0
aF0.0
aF13.5
asg36
S'Plot'
p201
sg38
S'Axe Z'
p202
ssS'Plot5'
p203
(dp204
g26
F1.1
sg27
(lp205
F0.0
aF0.0
aF19.2
asg29
g30
sg31
F2.4
sg32
(lp206
F0.0
aF0.0
aF1.0
asg34
(lp207
F0.0
aF0.0
aF18.0
asg36
S'Plot'
p208
sg38
S'Axe Z'
p209
ss.