(dp0
S'Element 13'
p1
(dp2
S'diameter'
p3
F1.0
sS'length'
p4
F1.0
sS'vector'
p5
(lp6
F0.0
aF0.0
aF1.0
asS'center'
p7
(lp8
F0.0
aF0.0
aF26.5
asS'position'
p9
(lp10
F0.0
aF0.0
aF26.0
asS'type'
p11
S'Tube'
p12
sS'shape'
p13
S'cylinder'
p14
sS'axis'
p15
S'Axe Z'
p16
ssS'Element 12'
p17
(dp18
g3
F1.0
sg4
F1.0
sg5
(lp19
F0.0
aF0.0
aF1.0
asg7
(lp20
F0.0
aF0.0
aF24.5
asg9
(lp21
F0.0
aF0.0
aF24.0
asg11
S'Tube'
p22
sg13
g14
sg15
S'Axe Z'
p23
ssS'fin'
p24
(dp25
g3
F1.0
sg4
F60.0
sg5
(lp26
F0.0
aF0.0
aF1.0
asg7
(lp27
F0.0
aF0.0
aF60.0
asg9
(lp28
F0.0
aF0.0
aF30.0
asg11
S'Tube'
p29
sg13
g14
sg15
S'Axe Z'
p30
ssS'Plot14'
p31
(dp32
g3
F1.0
sg4
F1.0
sg5
(lp33
F0.0
aF0.0
aF1.0
asg7
(lp34
F0.0
aF0.0
aF27.5
asg9
(lp35
F0.0
aF0.0
aF27.0
asg11
S'Plot'
p36
sg13
g14
sg15
S'Axe Z'
p37
ssS'Plot15'
p38
(dp39
g3
F1.0
sg4
F1.0
sg5
(lp40
F0.0
aF0.0
aF1.0
asg7
(lp41
F0.0
aF0.0
aF29.5
asg9
(lp42
F0.0
aF0.0
aF29.0
asg11
S'Plot'
p43
sg13
g14
sg15
S'Axe Z'
p44
ssS'Plot10'
p45
(dp46
g3
F1.0
sg4
F1.0
sg5
(lp47
F0.0
aF0.0
aF1.0
asg7
(lp48
F0.0
aF0.0
aF19.5
asg9
(lp49
F0.0
aF0.0
aF19.0
asg11
S'Plot'
p50
sg13
g14
sg15
S'Axe Z'
p51
ssS'Plot11'
p52
(dp53
g3
F1.0
sg4
F1.0
sg5
(lp54
F0.0
aF0.0
aF1.0
asg7
(lp55
F0.0
aF0.0
aF21.5
asg9
(lp56
F0.0
aF0.0
aF21.0
asg11
S'Plot'
p57
sg13
g14
sg15
S'Axe Z'
p58
ssS'Plot12'
p59
(dp60
g3
F1.0
sg4
F1.0
sg5
(lp61
F0.0
aF0.0
aF1.0
asg7
(lp62
F0.0
aF0.0
aF23.5
asg9
(lp63
F0.0
aF0.0
aF23.0
asg11
S'Plot'
p64
sg13
g14
sg15
S'Axe Z'
p65
ssS'Plot13'
p66
(dp67
g3
F1.0
sg4
F1.0
sg5
(lp68
F0.0
aF0.0
aF1.0
asg7
(lp69
F0.0
aF0.0
aF25.5
asg9
(lp70
F0.0
aF0.0
aF25.0
asg11
S'Plot'
p71
sg13
g14
sg15
S'Axe Z'
p72
ssS'Element 1'
p73
(dp74
g3
F1.0
sg4
F1.0
sg5
(lp75
F0.0
aF0.0
aF1.0
asg7
(lp76
F0.0
aF0.0
aF2.5
asg9
(lp77
F0.0
aF0.0
aF2.0
asg11
S'Tube'
p78
sg13
g14
sg15
S'Axe Z'
p79
ssS'Element 3'
p80
(dp81
g3
F1.0
sg4
F1.0
sg5
(lp82
F0.0
aF0.0
aF1.0
asg7
(lp83
F0.0
aF0.0
aF6.5
asg9
(lp84
F0.0
aF0.0
aF6.0
asg11
S'Tube'
p85
sg13
g14
sg15
S'Axe Z'
p86
ssS'Element 2'
p87
(dp88
g3
F1.0
sg4
F1.0
sg5
(lp89
F0.0
aF0.0
aF1.0
asg7
(lp90
F0.0
aF0.0
aF4.5
asg9
(lp91
F0.0
aF0.0
aF4.0
asg11
S'Tube'
p92
sg13
g14
sg15
S'Axe Z'
p93
ssS'Element 5'
p94
(dp95
g3
F1.0
sg4
F1.0
sg5
(lp96
F0.0
aF0.0
aF1.0
asg7
(lp97
F0.0
aF0.0
aF10.5
asg9
(lp98
F0.0
aF0.0
aF10.0
asg11
S'Tube'
p99
sg13
g14
sg15
S'Axe Z'
p100
ssS'Element 4'
p101
(dp102
g3
F1.0
sg4
F1.0
sg5
(lp103
F0.0
aF0.0
aF1.0
asg7
(lp104
F0.0
aF0.0
aF8.5
asg9
(lp105
F0.0
aF0.0
aF8.0
asg11
S'Tube'
p106
sg13
g14
sg15
S'Axe Z'
p107
ssS'Element 7'
p108
(dp109
g3
F1.0
sg4
F1.0
sg5
(lp110
F0.0
aF0.0
aF1.0
asg7
(lp111
F0.0
aF0.0
aF14.5
asg9
(lp112
F0.0
aF0.0
aF14.0
asg11
S'Tube'
p113
sg13
g14
sg15
S'Axe Z'
p114
ssS'Element 6'
p115
(dp116
g3
F1.0
sg4
F1.0
sg5
(lp117
F0.0
aF0.0
aF1.0
asg7
(lp118
F0.0
aF0.0
aF12.5
asg9
(lp119
F0.0
aF0.0
aF12.0
asg11
S'Tube'
p120
sg13
g14
sg15
S'Axe Z'
p121
ssS'Element 9'
p122
(dp123
g3
F1.0
sg4
F1.0
sg5
(lp124
F0.0
aF0.0
aF1.0
asg7
(lp125
F0.0
aF0.0
aF18.5
asg9
(lp126
F0.0
aF0.0
aF18.0
asg11
S'Tube'
p127
sg13
g14
sg15
S'Axe Z'
p128
ssS'Element 8'
p129
(dp130
g3
F1.0
sg4
F1.0
sg5
(lp131
F0.0
aF0.0
aF1.0
asg7
(lp132
F0.0
aF0.0
aF16.5
asg9
(lp133
F0.0
aF0.0
aF16.0
asg11
S'Tube'
p134
sg13
g14
sg15
S'Axe Z'
p135
ssS'Element 11'
p136
(dp137
g3
F1.0
sg4
F1.0
sg5
(lp138
F0.0
aF0.0
aF1.0
asg7
(lp139
F0.0
aF0.0
aF22.5
asg9
(lp140
F0.0
aF0.0
aF22.0
asg11
S'Tube'
p141
sg13
g14
sg15
S'Axe Z'
p142
ssS'Element 10'
p143
(dp144
g3
F1.0
sg4
F1.0
sg5
(lp145
F0.0
aF0.0
aF1.0
asg7
(lp146
F0.0
aF0.0
aF20.5
asg9
(lp147
F0.0
aF0.0
aF20.0
asg11
S'Tube'
p148
sg13
g14
sg15
S'Axe Z'
p149
ssS'Plot8'
p150
(dp151
g3
F1.0
sg4
F1.0
sg5
(lp152
F0.0
aF0.0
aF1.0
asg7
(lp153
F0.0
aF0.0
aF15.5
asg9
(lp154
F0.0
aF0.0
aF15.0
asg11
S'Plot'
p155
sg13
g14
sg15
S'Axe Z'
p156
ssS'Plot9'
p157
(dp158
g3
F1.0
sg4
F1.0
sg5
(lp159
F0.0
aF0.0
aF1.0
asg7
(lp160
F0.0
aF0.0
aF17.5
asg9
(lp161
F0.0
aF0.0
aF17.0
asg11
S'Plot'
p162
sg13
g14
sg15
S'Axe Z'
p163
ssS'Element 14'
p164
(dp165
g3
F1.0
sg4
F1.0
sg5
(lp166
F0.0
aF0.0
aF1.0
asg7
(lp167
F0.0
aF0.0
aF28.5
asg9
(lp168
F0.0
aF0.0
aF28.0
asg11
S'Tube'
p169
sg13
g14
sg15
S'Axe Z'
p170
ssS'Plot2'
p171
(dp172
g3
F1.0
sg4
F1.0
sg5
(lp173
F0.0
aF0.0
aF1.0
asg7
(lp174
F0.0
aF0.0
aF3.5
asg9
(lp175
F0.0
aF0.0
aF3.0
asg11
S'Plot'
p176
sg13
g14
sg15
S'Axe Z'
p177
ssS'Plot3'
p178
(dp179
g3
F1.0
sg4
F1.0
sg5
(lp180
F0.0
aF0.0
aF1.0
asg7
(lp181
F0.0
aF0.0
aF5.5
asg9
(lp182
F0.0
aF0.0
aF5.0
asg11
S'Plot'
p183
sg13
g14
sg15
S'Axe Z'
p184
ssS'Plot1'
p185
(dp186
g3
F1.0
sg4
F2.0
sg5
(lp187
F0.0
aF0.0
aF1.0
asg7
(lp188
F0.0
aF0.0
aF1.0
asg9
(lp189
F0.0
aF0.0
aF0.0
asg11
S'Plot'
p190
sg13
g14
sg15
S'Axe Z'
p191
ssS'Plot6'
p192
(dp193
g3
F1.0
sg4
F1.0
sg5
(lp194
F0.0
aF0.0
aF1.0
asg7
(lp195
F0.0
aF0.0
aF11.5
asg9
(lp196
F0.0
aF0.0
aF11.0
asg11
S'Plot'
p197
sg13
g14
sg15
S'Axe Z'
p198
ssS'Plot7'
p199
(dp200
g3
F1.0
sg4
F1.0
sg5
(lp201
F0.0
aF0.0
aF1.0
asg7
(lp202
F0.0
aF0.0
aF13.5
asg9
(lp203
F0.0
aF0.0
aF13.0
asg11
S'Plot'
p204
sg13
g14
sg15
S'Axe Z'
p205
ssS'Plot4'
p206
(dp207
g3
F1.0
sg4
F1.0
sg5
(lp208
F0.0
aF0.0
aF1.0
asg7
(lp209
F0.0
aF0.0
aF7.5
asg9
(lp210
F0.0
aF0.0
aF7.0
asg11
S'Plot'
p211
sg13
g14
sg15
S'Axe Z'
p212
ssS'Plot5'
p213
(dp214
g3
F1.0
sg4
F1.0
sg5
(lp215
F0.0
aF0.0
aF1.0
asg7
(lp216
F0.0
aF0.0
aF9.5
asg9
(lp217
F0.0
aF0.0
aF9.0
asg11
S'Plot'
p218
sg13
g14
sg15
S'Axe Z'
p219
ss.