(dp0
S'Element 8'
p1
(dp2
S'diameter'
p3
F0.80000000000000004
sS'length'
p4
F1.5
sS'vector'
p5
(lp6
F0.0
aF0.0
aF1.0
asS'position'
p7
(lp8
F0.0
aF0.0
aF26.5
asS'type'
p9
S'Tube'
p10
sS'axis'
p11
S'Axe Z'
p12
ssS'Element 10'
p13
(dp14
g3
F0.80000000000000004
sg4
F66.5
sg5
(lp15
F0.0
aF0.0
aF1.0
asg7
(lp16
F0.0
aF0.0
aF33.5
asg9
S'Tube'
p17
sg11
S'Axe Z'
p18
ssS'Element 9'
p19
(dp20
g3
F0.80000000000000004
sg4
F1.5
sg5
(lp21
F0.0
aF0.0
aF1.0
asg7
(lp22
F0.0
aF0.0
aF30.0
asg9
S'Tube'
p23
sg11
S'Axe Z'
p24
ssS'Plot10'
p25
(dp26
g3
F0.80000000000000004
sg4
F2.0
sg5
(lp27
F0.0
aF0.0
aF1.0
asg7
(lp28
F0.0
aF0.0
aF31.5
asg9
S'Plot'
p29
sg11
S'Axe Z'
p30
ssS'Plot8'
p31
(dp32
S'diameter'
p33
F0.80000000000000004
sS'length'
p34
F2.0
sS'vector'
p35
(lp36
F0.0
aF0.0
aF1.0
asS'position'
p37
(lp38
F0.0
aF0.0
aF24.5
asS'type'
p39
S'Plot'
p40
sS'axis'
p41
S'Axe Z'
p42
ssS'Element 1'
p43
(dp44
S'diameter'
p45
F0.80000000000000004
sS'length'
p46
F1.5
sS'vector'
p47
(lp48
F0.0
aF0.0
aF1.0
asS'position'
p49
(lp50
F0.0
aF0.0
aF2.0
asS'type'
p51
S'Tube'
p52
sS'axis'
p53
S'Axe Z'
p54
ssS'Plot9'
p55
(dp56
g3
F0.80000000000000004
sg4
F2.0
sg5
(lp57
F0.0
aF0.0
aF1.0
asg7
(lp58
F0.0
aF0.0
aF28.0
asg9
S'Plot'
p59
sg11
S'Axe Z'
p60
ssS'Element 3'
p61
(dp62
g45
F0.80000000000000004
sg46
F1.5
sg47
(lp63
F0.0
aF0.0
aF1.0
asg49
(lp64
F0.0
aF0.0
aF9.0
asg51
S'Tube'
p65
sg53
S'Axe Z'
p66
ssS'Element 2'
p67
(dp68
g45
F0.80000000000000004
sg46
F1.5
sg47
(lp69
F0.0
aF0.0
aF1.0
asg49
(lp70
F0.0
aF0.0
aF5.5
asg51
S'Tube'
p71
sg53
S'Axe Z'
p72
ssS'Element 5'
p73
(dp74
S'diameter'
p75
F0.80000000000000004
sS'length'
p76
F1.5
sS'vector'
p77
(lp78
F0.0
aF0.0
aF1.0
asS'position'
p79
(lp80
F0.0
aF0.0
aF16.0
asS'type'
p81
S'Tube'
p82
sS'axis'
p83
S'Axe Z'
p84
ssS'Element 4'
p85
(dp86
g45
F0.80000000000000004
sg46
F1.5
sg47
(lp87
F0.0
aF0.0
aF1.0
asg49
(lp88
F0.0
aF0.0
aF12.5
asg51
S'Tube'
p89
sg53
S'Axe Z'
p90
ssS'Element 7'
p91
(dp92
g33
F0.80000000000000004
sg34
F1.5
sg35
(lp93
F0.0
aF0.0
aF1.0
asg37
(lp94
F0.0
aF0.0
aF23.0
asg39
S'Tube'
p95
sg41
S'Axe Z'
p96
ssS'Element 6'
p97
(dp98
g33
F0.80000000000000004
sg34
F1.5
sg35
(lp99
F0.0
aF0.0
aF1.0
asg37
(lp100
F0.0
aF0.0
aF19.5
asg39
S'Tube'
p101
sg41
S'Axe Z'
p102
ssS'Plot2'
p103
(dp104
g45
F0.80000000000000004
sg46
F2.0
sg47
(lp105
F0.0
aF0.0
aF1.0
asg49
(lp106
F0.0
aF0.0
aF3.5
asg51
S'Plot'
p107
sg53
S'Axe Z'
p108
ssS'Plot3'
p109
(dp110
g45
F0.80000000000000004
sg46
F2.0
sg47
(lp111
F0.0
aF0.0
aF1.0
asg49
(lp112
F0.0
aF0.0
aF7.0
asg51
S'Plot'
p113
sg53
S'Axe Z'
p114
ssS'Plot1'
p115
(dp116
g45
F0.80000000000000004
sg46
F2.0
sg47
(lp117
F0.0
aF0.0
aF1.0
asg49
(lp118
F0.0
aF0.0
aF0.0
asg51
S'Plot'
p119
sg53
S'Axe Z'
p120
ssS'Plot6'
p121
(dp122
S'diameter'
p123
F0.80000000000000004
sS'length'
p124
F2.0
sS'vector'
p125
(lp126
F0.0
aF0.0
aF1.0
asS'position'
p127
(lp128
F0.0
aF0.0
aF17.5
asS'type'
p129
S'Plot'
p130
sS'axis'
p131
S'Axe Z'
p132
ssS'Plot7'
p133
(dp134
g33
F0.80000000000000004
sg34
F2.0
sg35
(lp135
F0.0
aF0.0
aF1.0
asg37
(lp136
F0.0
aF0.0
aF21.0
asg39
S'Plot'
p137
sg41
S'Axe Z'
p138
ssS'Plot4'
p139
(dp140
g45
F0.80000000000000004
sg46
F2.0
sg47
(lp141
F0.0
aF0.0
aF1.0
asg49
(lp142
F0.0
aF0.0
aF10.5
asg51
S'Plot'
p143
sg53
S'Axe Z'
p144
ssS'Plot5'
p145
(dp146
g45
F0.80000000000000004
sg46
F2.0
sg47
(lp147
F0.0
aF0.0
aF1.0
asg49
(lp148
F0.0
aF0.0
aF14.0
asg51
S'Plot'
p149
sg53
S'Axe Z'
p150
ss.