(dp0
S'Element 13'
p1
(dp2
S'diameter'
p3
F0.80000000000000004
sS'length'
p4
F1.5
sS'vector'
p5
(lp6
F0.0
aF0.0
aF1.0
asS'position'
p7
(lp8
F0.0
aF0.0
aF44.0
asS'type'
p9
S'Tube'
p10
sS'axis'
p11
S'Axe Z'
p12
ssS'Element 12'
p13
(dp14
g3
F0.80000000000000004
sg4
F1.5
sg5
(lp15
F0.0
aF0.0
aF1.0
asg7
(lp16
F0.0
aF0.0
aF40.5
asg9
S'Tube'
p17
sg11
S'Axe Z'
p18
ssS'Plot14'
p19
(dp20
g3
F0.80000000000000004
sg4
F2.0
sg5
(lp21
F0.0
aF0.0
aF1.0
asg7
(lp22
F0.0
aF0.0
aF45.5
asg9
S'Plot'
p23
sg11
S'Axe Z'
p24
ssS'Plot15'
p25
(dp26
g3
F0.80000000000000004
sg4
F2.0
sg5
(lp27
F0.0
aF0.0
aF1.0
asg7
(lp28
F0.0
aF0.0
aF49.0
asg9
S'Plot'
p29
sg11
S'Axe Z'
p30
ssS'Plot10'
p31
(dp32
g3
F0.80000000000000004
sg4
F2.0
sg5
(lp33
F0.0
aF0.0
aF1.0
asg7
(lp34
F0.0
aF0.0
aF31.5
asg9
S'Plot'
p35
sg11
S'Axe Z'
p36
ssS'Plot11'
p37
(dp38
g3
F0.80000000000000004
sg4
F2.0
sg5
(lp39
F0.0
aF0.0
aF1.0
asg7
(lp40
F0.0
aF0.0
aF35.0
asg9
S'Plot'
p41
sg11
S'Axe Z'
p42
ssS'Plot12'
p43
(dp44
g3
F0.80000000000000004
sg4
F2.0
sg5
(lp45
F0.0
aF0.0
aF1.0
asg7
(lp46
F0.0
aF0.0
aF38.5
asg9
S'Plot'
p47
sg11
S'Axe Z'
p48
ssS'Plot13'
p49
(dp50
g3
F0.80000000000000004
sg4
F2.0
sg5
(lp51
F0.0
aF0.0
aF1.0
asg7
(lp52
F0.0
aF0.0
aF42.0
asg9
S'Plot'
p53
sg11
S'Axe Z'
p54
ssS'Element 1'
p55
(dp56
S'diameter'
p57
F0.80000000000000004
sS'length'
p58
F1.5
sS'vector'
p59
(lp60
F0.0
aF0.0
aF1.0
asS'position'
p61
(lp62
F0.0
aF0.0
aF2.0
asS'type'
p63
S'Tube'
p64
sS'axis'
p65
S'Axe Z'
p66
ssS'Element 3'
p67
(dp68
g57
F0.80000000000000004
sg58
F1.5
sg59
(lp69
F0.0
aF0.0
aF1.0
asg61
(lp70
F0.0
aF0.0
aF9.0
asg63
S'Tube'
p71
sg65
S'Axe Z'
p72
ssS'Element 2'
p73
(dp74
g57
F0.80000000000000004
sg58
F1.5
sg59
(lp75
F0.0
aF0.0
aF1.0
asg61
(lp76
F0.0
aF0.0
aF5.5
asg63
S'Tube'
p77
sg65
S'Axe Z'
p78
ssS'Element 5'
p79
(dp80
S'diameter'
p81
F0.80000000000000004
sS'length'
p82
F1.5
sS'vector'
p83
(lp84
F0.0
aF0.0
aF1.0
asS'position'
p85
(lp86
F0.0
aF0.0
aF16.0
asS'type'
p87
S'Tube'
p88
sS'axis'
p89
S'Axe Z'
p90
ssS'Element 4'
p91
(dp92
g57
F0.80000000000000004
sg58
F1.5
sg59
(lp93
F0.0
aF0.0
aF1.0
asg61
(lp94
F0.0
aF0.0
aF12.5
asg63
S'Tube'
p95
sg65
S'Axe Z'
p96
ssS'Element 7'
p97
(dp98
S'diameter'
p99
F0.80000000000000004
sS'length'
p100
F1.5
sS'vector'
p101
(lp102
F0.0
aF0.0
aF1.0
asS'position'
p103
(lp104
F0.0
aF0.0
aF23.0
asS'type'
p105
S'Tube'
p106
sS'axis'
p107
S'Axe Z'
p108
ssS'Element 6'
p109
(dp110
g99
F0.80000000000000004
sg100
F1.5
sg101
(lp111
F0.0
aF0.0
aF1.0
asg103
(lp112
F0.0
aF0.0
aF19.5
asg105
S'Tube'
p113
sg107
S'Axe Z'
p114
ssS'Element 9'
p115
(dp116
g3
F0.80000000000000004
sg4
F1.5
sg5
(lp117
F0.0
aF0.0
aF1.0
asg7
(lp118
F0.0
aF0.0
aF30.0
asg9
S'Tube'
p119
sg11
S'Axe Z'
p120
ssS'Element 8'
p121
(dp122
g3
F0.80000000000000004
sg4
F1.5
sg5
(lp123
F0.0
aF0.0
aF1.0
asg7
(lp124
F0.0
aF0.0
aF26.5
asg9
S'Tube'
p125
sg11
S'Axe Z'
p126
ssS'Element 11'
p127
(dp128
g3
F0.80000000000000004
sg4
F1.5
sg5
(lp129
F0.0
aF0.0
aF1.0
asg7
(lp130
F0.0
aF0.0
aF37.0
asg9
S'Tube'
p131
sg11
S'Axe Z'
p132
ssS'Element 10'
p133
(dp134
g3
F0.80000000000000004
sg4
F1.5
sg5
(lp135
F0.0
aF0.0
aF1.0
asg7
(lp136
F0.0
aF0.0
aF33.5
asg9
S'Tube'
p137
sg11
S'Axe Z'
p138
ssS'Plot8'
p139
(dp140
g99
F0.80000000000000004
sg100
F2.0
sg101
(lp141
F0.0
aF0.0
aF1.0
asg103
(lp142
F0.0
aF0.0
aF24.5
asg105
S'Plot'
p143
sg107
S'Axe Z'
p144
ssS'Plot9'
p145
(dp146
g3
F0.80000000000000004
sg4
F2.0
sg5
(lp147
F0.0
aF0.0
aF1.0
asg7
(lp148
F0.0
aF0.0
aF28.0
asg9
S'Plot'
p149
sg11
S'Axe Z'
p150
ssS'Element 15'
p151
(dp152
g3
F0.80000000000000004
sg4
F49.0
sg5
(lp153
F0.0
aF0.0
aF1.0
asg7
(lp154
F0.0
aF0.0
aF51.0
asg9
S'Tube'
p155
sg11
S'Axe Z'
p156
ssS'Element 14'
p157
(dp158
g3
F0.80000000000000004
sg4
F1.5
sg5
(lp159
F0.0
aF0.0
aF1.0
asg7
(lp160
F0.0
aF0.0
aF47.5
asg9
S'Tube'
p161
sg11
S'Axe Z'
p162
ssS'Plot2'
p163
(dp164
g57
F0.80000000000000004
sg58
F2.0
sg59
(lp165
F0.0
aF0.0
aF1.0
asg61
(lp166
F0.0
aF0.0
aF3.5
asg63
S'Plot'
p167
sg65
S'Axe Z'
p168
ssS'Plot3'
p169
(dp170
g57
F0.80000000000000004
sg58
F2.0
sg59
(lp171
F0.0
aF0.0
aF1.0
asg61
(lp172
F0.0
aF0.0
aF7.0
asg63
S'Plot'
p173
sg65
S'Axe Z'
p174
ssS'Plot1'
p175
(dp176
g57
F0.80000000000000004
sg58
F2.0
sg59
(lp177
F0.0
aF0.0
aF1.0
asg61
(lp178
F0.0
aF0.0
aF0.0
asg63
S'Plot'
p179
sg65
S'Axe Z'
p180
ssS'Plot6'
p181
(dp182
S'diameter'
p183
F0.80000000000000004
sS'length'
p184
F2.0
sS'vector'
p185
(lp186
F0.0
aF0.0
aF1.0
asS'position'
p187
(lp188
F0.0
aF0.0
aF17.5
asS'type'
p189
S'Plot'
p190
sS'axis'
p191
S'Axe Z'
p192
ssS'Plot7'
p193
(dp194
g99
F0.80000000000000004
sg100
F2.0
sg101
(lp195
F0.0
aF0.0
aF1.0
asg103
(lp196
F0.0
aF0.0
aF21.0
asg105
S'Plot'
p197
sg107
S'Axe Z'
p198
ssS'Plot4'
p199
(dp200
g57
F0.80000000000000004
sg58
F2.0
sg59
(lp201
F0.0
aF0.0
aF1.0
asg61
(lp202
F0.0
aF0.0
aF10.5
asg63
S'Plot'
p203
sg65
S'Axe Z'
p204
ssS'Plot5'
p205
(dp206
g57
F0.80000000000000004
sg58
F2.0
sg59
(lp207
F0.0
aF0.0
aF1.0
asg61
(lp208
F0.0
aF0.0
aF14.0
asg63
S'Plot'
p209
sg65
S'Axe Z'
p210
ss.