(dp0
S'Element 12'
p1
(dp2
S'diameter'
p3
F0.80000000000000004
sS'length'
p4
F59.5
sS'vector'
p5
(lp6
F0.0
aF0.0
aF1.0
asS'position'
p7
(lp8
F0.0
aF0.0
aF40.5
asS'type'
p9
S'Tube'
p10
sS'axis'
p11
S'Axe Z'
p12
ssS'Plot10'
p13
(dp14
g3
F0.80000000000000004
sg4
F2.0
sg5
(lp15
F0.0
aF0.0
aF1.0
asg7
(lp16
F0.0
aF0.0
aF31.5
asg9
S'Plot'
p17
sg11
S'Axe Z'
p18
ssS'Plot11'
p19
(dp20
g3
F0.80000000000000004
sg4
F2.0
sg5
(lp21
F0.0
aF0.0
aF1.0
asg7
(lp22
F0.0
aF0.0
aF35.0
asg9
S'Plot'
p23
sg11
S'Axe Z'
p24
ssS'Plot12'
p25
(dp26
g3
F0.80000000000000004
sg4
F2.0
sg5
(lp27
F0.0
aF0.0
aF1.0
asg7
(lp28
F0.0
aF0.0
aF38.5
asg9
S'Plot'
p29
sg11
S'Axe Z'
p30
ssS'Element 1'
p31
(dp32
S'diameter'
p33
F0.80000000000000004
sS'length'
p34
F1.5
sS'vector'
p35
(lp36
F0.0
aF0.0
aF1.0
asS'position'
p37
(lp38
F0.0
aF0.0
aF2.0
asS'type'
p39
S'Tube'
p40
sS'axis'
p41
S'Axe Z'
p42
ssS'Element 3'
p43
(dp44
g33
F0.80000000000000004
sg34
F1.5
sg35
(lp45
F0.0
aF0.0
aF1.0
asg37
(lp46
F0.0
aF0.0
aF9.0
asg39
S'Tube'
p47
sg41
S'Axe Z'
p48
ssS'Element 2'
p49
(dp50
g33
F0.80000000000000004
sg34
F1.5
sg35
(lp51
F0.0
aF0.0
aF1.0
asg37
(lp52
F0.0
aF0.0
aF5.5
asg39
S'Tube'
p53
sg41
S'Axe Z'
p54
ssS'Element 5'
p55
(dp56
S'diameter'
p57
F0.80000000000000004
sS'length'
p58
F1.5
sS'vector'
p59
(lp60
F0.0
aF0.0
aF1.0
asS'position'
p61
(lp62
F0.0
aF0.0
aF16.0
asS'type'
p63
S'Tube'
p64
sS'axis'
p65
S'Axe Z'
p66
ssS'Element 4'
p67
(dp68
g33
F0.80000000000000004
sg34
F1.5
sg35
(lp69
F0.0
aF0.0
aF1.0
asg37
(lp70
F0.0
aF0.0
aF12.5
asg39
S'Tube'
p71
sg41
S'Axe Z'
p72
ssS'Element 7'
p73
(dp74
S'diameter'
p75
F0.80000000000000004
sS'length'
p76
F1.5
sS'vector'
p77
(lp78
F0.0
aF0.0
aF1.0
asS'position'
p79
(lp80
F0.0
aF0.0
aF23.0
asS'type'
p81
S'Tube'
p82
sS'axis'
p83
S'Axe Z'
p84
ssS'Element 6'
p85
(dp86
g75
F0.80000000000000004
sg76
F1.5
sg77
(lp87
F0.0
aF0.0
aF1.0
asg79
(lp88
F0.0
aF0.0
aF19.5
asg81
S'Tube'
p89
sg83
S'Axe Z'
p90
ssS'Element 9'
p91
(dp92
g3
F0.80000000000000004
sg4
F1.5
sg5
(lp93
F0.0
aF0.0
aF1.0
asg7
(lp94
F0.0
aF0.0
aF30.0
asg9
S'Tube'
p95
sg11
S'Axe Z'
p96
ssS'Element 8'
p97
(dp98
g3
F0.80000000000000004
sg4
F1.5
sg5
(lp99
F0.0
aF0.0
aF1.0
asg7
(lp100
F0.0
aF0.0
aF26.5
asg9
S'Tube'
p101
sg11
S'Axe Z'
p102
ssS'Element 11'
p103
(dp104
g3
F0.80000000000000004
sg4
F1.5
sg5
(lp105
F0.0
aF0.0
aF1.0
asg7
(lp106
F0.0
aF0.0
aF37.0
asg9
S'Tube'
p107
sg11
S'Axe Z'
p108
ssS'Element 10'
p109
(dp110
g3
F0.80000000000000004
sg4
F1.5
sg5
(lp111
F0.0
aF0.0
aF1.0
asg7
(lp112
F0.0
aF0.0
aF33.5
asg9
S'Tube'
p113
sg11
S'Axe Z'
p114
ssS'Plot8'
p115
(dp116
g75
F0.80000000000000004
sg76
F2.0
sg77
(lp117
F0.0
aF0.0
aF1.0
asg79
(lp118
F0.0
aF0.0
aF24.5
asg81
S'Plot'
p119
sg83
S'Axe Z'
p120
ssS'Plot9'
p121
(dp122
g3
F0.80000000000000004
sg4
F2.0
sg5
(lp123
F0.0
aF0.0
aF1.0
asg7
(lp124
F0.0
aF0.0
aF28.0
asg9
S'Plot'
p125
sg11
S'Axe Z'
p126
ssS'Plot2'
p127
(dp128
g33
F0.80000000000000004
sg34
F2.0
sg35
(lp129
F0.0
aF0.0
aF1.0
asg37
(lp130
F0.0
aF0.0
aF3.5
asg39
S'Plot'
p131
sg41
S'Axe Z'
p132
ssS'Plot3'
p133
(dp134
g33
F0.80000000000000004
sg34
F2.0
sg35
(lp135
F0.0
aF0.0
aF1.0
asg37
(lp136
F0.0
aF0.0
aF7.0
asg39
S'Plot'
p137
sg41
S'Axe Z'
p138
ssS'Plot1'
p139
(dp140
g33
F0.80000000000000004
sg34
F2.0
sg35
(lp141
F0.0
aF0.0
aF1.0
asg37
(lp142
F0.0
aF0.0
aF0.0
asg39
S'Plot'
p143
sg41
S'Axe Z'
p144
ssS'Plot6'
p145
(dp146
S'diameter'
p147
F0.80000000000000004
sS'length'
p148
F2.0
sS'vector'
p149
(lp150
F0.0
aF0.0
aF1.0
asS'position'
p151
(lp152
F0.0
aF0.0
aF17.5
asS'type'
p153
S'Plot'
p154
sS'axis'
p155
S'Axe Z'
p156
ssS'Plot7'
p157
(dp158
g75
F0.80000000000000004
sg76
F2.0
sg77
(lp159
F0.0
aF0.0
aF1.0
asg79
(lp160
F0.0
aF0.0
aF21.0
asg81
S'Plot'
p161
sg83
S'Axe Z'
p162
ssS'Plot4'
p163
(dp164
g33
F0.80000000000000004
sg34
F2.0
sg35
(lp165
F0.0
aF0.0
aF1.0
asg37
(lp166
F0.0
aF0.0
aF10.5
asg39
S'Plot'
p167
sg41
S'Axe Z'
p168
ssS'Plot5'
p169
(dp170
g33
F0.80000000000000004
sg34
F2.0
sg35
(lp171
F0.0
aF0.0
aF1.0
asg37
(lp172
F0.0
aF0.0
aF14.0
asg39
S'Plot'
p173
sg41
S'Axe Z'
p174
ss.