(dp0
S'Plot3'
p1
(dp2
S'diameter'
p3
F0.80000000000000004
sS'length'
p4
F2.0
sS'vector'
p5
(lp6
F0.0
aF0.0
aF1.0
asS'position'
p7
(lp8
F0.0
aF0.0
aF7.0
asS'type'
p9
S'Plot'
p10
sS'axis'
p11
S'Axe Z'
p12
ssS'Plot8'
p13
(dp14
S'diameter'
p15
F0.80000000000000004
sS'length'
p16
F2.0
sS'vector'
p17
(lp18
F0.0
aF0.0
aF1.0
asS'position'
p19
(lp20
F0.0
aF0.0
aF34.0
asS'type'
p21
S'Plot'
p22
sS'axis'
p23
S'Axe Z'
p24
ssS'Plot9'
p25
(dp26
g15
F0.80000000000000004
sg16
F2.0
sg17
(lp27
F0.0
aF0.0
aF1.0
asg19
(lp28
F0.0
aF0.0
aF37.5
asg21
S'Plot'
p29
sg23
S'Axe Z'
p30
ssS'Plot18'
p31
(dp32
g15
F0.80000000000000004
sg16
F2.0
sg17
(lp33
F0.0
aF0.0
aF1.0
asg19
(lp34
F0.0
aF0.0
aF78.5
asg21
S'Plot'
p35
sg23
S'Axe Z'
p36
ssS'Plot14'
p37
(dp38
g15
F0.80000000000000004
sg16
F2.0
sg17
(lp39
F0.0
aF0.0
aF1.0
asg19
(lp40
F0.0
aF0.0
aF64.5
asg21
S'Plot'
p41
sg23
S'Axe Z'
p42
ssS'Plot15'
p43
(dp44
g15
F0.80000000000000004
sg16
F2.0
sg17
(lp45
F0.0
aF0.0
aF1.0
asg19
(lp46
F0.0
aF0.0
aF68.0
asg21
S'Plot'
p47
sg23
S'Axe Z'
p48
ssS'Plot16'
p49
(dp50
g15
F0.80000000000000004
sg16
F2.0
sg17
(lp51
F0.0
aF0.0
aF1.0
asg19
(lp52
F0.0
aF0.0
aF71.5
asg21
S'Plot'
p53
sg23
S'Axe Z'
p54
ssS'Plot17'
p55
(dp56
g15
F0.80000000000000004
sg16
F2.0
sg17
(lp57
F0.0
aF0.0
aF1.0
asg19
(lp58
F0.0
aF0.0
aF75.0
asg21
S'Plot'
p59
sg23
S'Axe Z'
p60
ssS'Plot10'
p61
(dp62
g15
F0.80000000000000004
sg16
F2.0
sg17
(lp63
F0.0
aF0.0
aF1.0
asg19
(lp64
F0.0
aF0.0
aF41.0
asg21
S'Plot'
p65
sg23
S'Axe Z'
p66
ssS'Plot11'
p67
(dp68
g15
F0.80000000000000004
sg16
F2.0
sg17
(lp69
F0.0
aF0.0
aF1.0
asg19
(lp70
F0.0
aF0.0
aF44.5
asg21
S'Plot'
p71
sg23
S'Axe Z'
p72
ssS'Plot12'
p73
(dp74
g15
F0.80000000000000004
sg16
F2.0
sg17
(lp75
F0.0
aF0.0
aF1.0
asg19
(lp76
F0.0
aF0.0
aF48.0
asg21
S'Plot'
p77
sg23
S'Axe Z'
p78
ssS'Plot13'
p79
(dp80
g15
F0.80000000000000004
sg16
F2.0
sg17
(lp81
F0.0
aF0.0
aF1.0
asg19
(lp82
F0.0
aF0.0
aF61.0
asg21
S'Plot'
p83
sg23
S'Axe Z'
p84
ssS'Element 1'
p85
(dp86
g3
F0.80000000000000004
sg4
F1.5
sg5
(lp87
F0.0
aF0.0
aF1.0
asg7
(lp88
F0.0
aF0.0
aF2.0
asg9
S'Tube'
p89
sg11
S'Axe Z'
p90
ssS'Element 3'
p91
(dp92
g3
F0.80000000000000004
sg4
F1.5
sg5
(lp93
F0.0
aF0.0
aF1.0
asg7
(lp94
F0.0
aF0.0
aF9.0
asg9
S'Tube'
p95
sg11
S'Axe Z'
p96
ssS'Element 2'
p97
(dp98
g3
F0.80000000000000004
sg4
F1.5
sg5
(lp99
F0.0
aF0.0
aF1.0
asg7
(lp100
F0.0
aF0.0
aF5.5
asg9
S'Tube'
p101
sg11
S'Axe Z'
p102
ssS'Element 5'
p103
(dp104
S'diameter'
p105
F0.80000000000000004
sS'length'
p106
F1.5
sS'vector'
p107
(lp108
F0.0
aF0.0
aF1.0
asS'position'
p109
(lp110
F0.0
aF0.0
aF16.0
asS'type'
p111
S'Tube'
p112
sS'axis'
p113
S'Axe Z'
p114
ssS'Element 4'
p115
(dp116
g3
F0.80000000000000004
sg4
F1.5
sg5
(lp117
F0.0
aF0.0
aF1.0
asg7
(lp118
F0.0
aF0.0
aF12.5
asg9
S'Tube'
p119
sg11
S'Axe Z'
p120
ssS'Element 7'
p121
(dp122
g15
F0.80000000000000004
sg16
F1.5
sg17
(lp123
F0.0
aF0.0
aF1.0
asg19
(lp124
F0.0
aF0.0
aF32.5
asg21
S'Tube'
p125
sg23
S'Axe Z'
p126
ssS'Element 6'
p127
(dp128
g15
F0.80000000000000004
sg16
F11.0
sg17
(lp129
F0.0
aF0.0
aF1.0
asg19
(lp130
F0.0
aF0.0
aF19.5
asg21
S'Tube'
p131
sg23
S'Axe Z'
p132
ssS'Element 9'
p133
(dp134
g15
F0.80000000000000004
sg16
F1.5
sg17
(lp135
F0.0
aF0.0
aF1.0
asg19
(lp136
F0.0
aF0.0
aF39.5
asg21
S'Tube'
p137
sg23
S'Axe Z'
p138
ssS'Element 8'
p139
(dp140
g15
F0.80000000000000004
sg16
F1.5
sg17
(lp141
F0.0
aF0.0
aF1.0
asg19
(lp142
F0.0
aF0.0
aF36.0
asg21
S'Tube'
p143
sg23
S'Axe Z'
p144
ssS'Element 11'
p145
(dp146
g15
F0.80000000000000004
sg16
F1.5
sg17
(lp147
F0.0
aF0.0
aF1.0
asg19
(lp148
F0.0
aF0.0
aF46.5
asg21
S'Tube'
p149
sg23
S'Axe Z'
p150
ssS'Element 10'
p151
(dp152
g15
F0.80000000000000004
sg16
F1.5
sg17
(lp153
F0.0
aF0.0
aF1.0
asg19
(lp154
F0.0
aF0.0
aF43.0
asg21
S'Tube'
p155
sg23
S'Axe Z'
p156
ssS'Element 13'
p157
(dp158
g15
F0.80000000000000004
sg16
F1.5
sg17
(lp159
F0.0
aF0.0
aF1.0
asg19
(lp160
F0.0
aF0.0
aF63.0
asg21
S'Tube'
p161
sg23
S'Axe Z'
p162
ssS'Element 12'
p163
(dp164
g15
F0.80000000000000004
sg16
F11.0
sg17
(lp165
F0.0
aF0.0
aF1.0
asg19
(lp166
F0.0
aF0.0
aF50.0
asg21
S'Tube'
p167
sg23
S'Axe Z'
p168
ssS'Element 15'
p169
(dp170
g15
F0.80000000000000004
sg16
F1.5
sg17
(lp171
F0.0
aF0.0
aF1.0
asg19
(lp172
F0.0
aF0.0
aF70.0
asg21
S'Tube'
p173
sg23
S'Axe Z'
p174
ssS'Element 14'
p175
(dp176
g15
F0.80000000000000004
sg16
F1.5
sg17
(lp177
F0.0
aF0.0
aF1.0
asg19
(lp178
F0.0
aF0.0
aF66.5
asg21
S'Tube'
p179
sg23
S'Axe Z'
p180
ssS'Element 17'
p181
(dp182
g15
F0.80000000000000004
sg16
F1.5
sg17
(lp183
F0.0
aF0.0
aF1.0
asg19
(lp184
F0.0
aF0.0
aF77.0
asg21
S'Tube'
p185
sg23
S'Axe Z'
p186
ssS'Element 16'
p187
(dp188
g15
F0.80000000000000004
sg16
F1.5
sg17
(lp189
F0.0
aF0.0
aF1.0
asg19
(lp190
F0.0
aF0.0
aF73.5
asg21
S'Tube'
p191
sg23
S'Axe Z'
p192
ssS'Plot2'
p193
(dp194
g3
F0.80000000000000004
sg4
F2.0
sg5
(lp195
F0.0
aF0.0
aF1.0
asg7
(lp196
F0.0
aF0.0
aF3.5
asg9
S'Plot'
p197
sg11
S'Axe Z'
p198
ssS'Element 18'
p199
(dp200
g15
F0.80000000000000004
sg16
F19.5
sg17
(lp201
F0.0
aF0.0
aF1.0
asg19
(lp202
F0.0
aF0.0
aF80.5
asg21
S'Tube'
p203
sg23
S'Axe Z'
p204
ssS'Plot1'
p205
(dp206
g3
F0.80000000000000004
sg4
F2.0
sg5
(lp207
F0.0
aF0.0
aF1.0
asg7
(lp208
F0.0
aF0.0
aF0.0
asg9
S'Plot'
p209
sg11
S'Axe Z'
p210
ssS'Plot6'
p211
(dp212
S'diameter'
p213
F0.80000000000000004
sS'length'
p214
F2.0
sS'vector'
p215
(lp216
F0.0
aF0.0
aF1.0
asS'position'
p217
(lp218
F0.0
aF0.0
aF17.5
asS'type'
p219
S'Plot'
p220
sS'axis'
p221
S'Axe Z'
p222
ssS'Plot7'
p223
(dp224
g15
F0.80000000000000004
sg16
F2.0
sg17
(lp225
F0.0
aF0.0
aF1.0
asg19
(lp226
F0.0
aF0.0
aF30.5
asg21
S'Plot'
p227
sg23
S'Axe Z'
p228
ssS'Plot4'
p229
(dp230
g3
F0.80000000000000004
sg4
F2.0
sg5
(lp231
F0.0
aF0.0
aF1.0
asg7
(lp232
F0.0
aF0.0
aF10.5
asg9
S'Plot'
p233
sg11
S'Axe Z'
p234
ssS'Plot5'
p235
(dp236
g3
F0.80000000000000004
sg4
F2.0
sg5
(lp237
F0.0
aF0.0
aF1.0
asg7
(lp238
F0.0
aF0.0
aF14.0
asg9
S'Plot'
p239
sg11
S'Axe Z'
p240
ss.