(dp0
S'Element 13'
p1
(dp2
S'diameter'
p3
F0.80000000000000004
sS'length'
p4
F1.5
sS'vector'
p5
(lp6
F0.0
aF0.0
aF1.0
asS'position'
p7
(lp8
F0.0
aF0.0
aF63.0
asS'type'
p9
S'Tube'
p10
sS'axis'
p11
S'Axe Z'
p12
ssS'Element 12'
p13
(dp14
g3
F0.80000000000000004
sg4
F1.5
sg5
(lp15
F0.0
aF0.0
aF1.0
asg7
(lp16
F0.0
aF0.0
aF59.5
asg9
S'Tube'
p17
sg11
S'Axe Z'
p18
ssS'Plot14'
p19
(dp20
g3
F0.80000000000000004
sg4
F2.0
sg5
(lp21
F0.0
aF0.0
aF1.0
asg7
(lp22
F0.0
aF0.0
aF64.5
asg9
S'Plot'
p23
sg11
S'Axe Z'
p24
ssS'Plot15'
p25
(dp26
g3
F0.80000000000000004
sg4
F2.0
sg5
(lp27
F0.0
aF0.0
aF1.0
asg7
(lp28
F0.0
aF0.0
aF68.0
asg9
S'Plot'
p29
sg11
S'Axe Z'
p30
ssS'Plot10'
p31
(dp32
g3
F0.80000000000000004
sg4
F2.0
sg5
(lp33
F0.0
aF0.0
aF1.0
asg7
(lp34
F0.0
aF0.0
aF41.0
asg9
S'Plot'
p35
sg11
S'Axe Z'
p36
ssS'Plot11'
p37
(dp38
g3
F0.80000000000000004
sg4
F2.0
sg5
(lp39
F0.0
aF0.0
aF1.0
asg7
(lp40
F0.0
aF0.0
aF54.0
asg9
S'Plot'
p41
sg11
S'Axe Z'
p42
ssS'Plot12'
p43
(dp44
g3
F0.80000000000000004
sg4
F2.0
sg5
(lp45
F0.0
aF0.0
aF1.0
asg7
(lp46
F0.0
aF0.0
aF57.5
asg9
S'Plot'
p47
sg11
S'Axe Z'
p48
ssS'Plot13'
p49
(dp50
g3
F0.80000000000000004
sg4
F2.0
sg5
(lp51
F0.0
aF0.0
aF1.0
asg7
(lp52
F0.0
aF0.0
aF61.0
asg9
S'Plot'
p53
sg11
S'Axe Z'
p54
ssS'Element 1'
p55
(dp56
S'diameter'
p57
F0.80000000000000004
sS'length'
p58
F1.5
sS'vector'
p59
(lp60
F0.0
aF0.0
aF1.0
asS'position'
p61
(lp62
F0.0
aF0.0
aF2.0
asS'type'
p63
S'Tube'
p64
sS'axis'
p65
S'Axe Z'
p66
ssS'Element 3'
p67
(dp68
g57
F0.80000000000000004
sg58
F1.5
sg59
(lp69
F0.0
aF0.0
aF1.0
asg61
(lp70
F0.0
aF0.0
aF9.0
asg63
S'Tube'
p71
sg65
S'Axe Z'
p72
ssS'Element 2'
p73
(dp74
g57
F0.80000000000000004
sg58
F1.5
sg59
(lp75
F0.0
aF0.0
aF1.0
asg61
(lp76
F0.0
aF0.0
aF5.5
asg63
S'Tube'
p77
sg65
S'Axe Z'
p78
ssS'Element 5'
p79
(dp80
g3
F0.80000000000000004
sg4
F11.0
sg5
(lp81
F0.0
aF0.0
aF1.0
asg7
(lp82
F0.0
aF0.0
aF16.0
asg9
S'Tube'
p83
sg11
S'Axe Z'
p84
ssS'Element 4'
p85
(dp86
g57
F0.80000000000000004
sg58
F1.5
sg59
(lp87
F0.0
aF0.0
aF1.0
asg61
(lp88
F0.0
aF0.0
aF12.5
asg63
S'Tube'
p89
sg65
S'Axe Z'
p90
ssS'Element 7'
p91
(dp92
g3
F0.80000000000000004
sg4
F1.5
sg5
(lp93
F0.0
aF0.0
aF1.0
asg7
(lp94
F0.0
aF0.0
aF32.5
asg9
S'Tube'
p95
sg11
S'Axe Z'
p96
ssS'Element 6'
p97
(dp98
g3
F0.80000000000000004
sg4
F1.5
sg5
(lp99
F0.0
aF0.0
aF1.0
asg7
(lp100
F0.0
aF0.0
aF29.0
asg9
S'Tube'
p101
sg11
S'Axe Z'
p102
ssS'Element 9'
p103
(dp104
g3
F0.80000000000000004
sg4
F1.5
sg5
(lp105
F0.0
aF0.0
aF1.0
asg7
(lp106
F0.0
aF0.0
aF39.5
asg9
S'Tube'
p107
sg11
S'Axe Z'
p108
ssS'Element 8'
p109
(dp110
g3
F0.80000000000000004
sg4
F1.5
sg5
(lp111
F0.0
aF0.0
aF1.0
asg7
(lp112
F0.0
aF0.0
aF36.0
asg9
S'Tube'
p113
sg11
S'Axe Z'
p114
ssS'Element 11'
p115
(dp116
g3
F0.80000000000000004
sg4
F1.5
sg5
(lp117
F0.0
aF0.0
aF1.0
asg7
(lp118
F0.0
aF0.0
aF56.0
asg9
S'Tube'
p119
sg11
S'Axe Z'
p120
ssS'Element 10'
p121
(dp122
g3
F0.80000000000000004
sg4
F11.0
sg5
(lp123
F0.0
aF0.0
aF1.0
asg7
(lp124
F0.0
aF0.0
aF43.0
asg9
S'Tube'
p125
sg11
S'Axe Z'
p126
ssS'Plot8'
p127
(dp128
g3
F0.80000000000000004
sg4
F2.0
sg5
(lp129
F0.0
aF0.0
aF1.0
asg7
(lp130
F0.0
aF0.0
aF34.0
asg9
S'Plot'
p131
sg11
S'Axe Z'
p132
ssS'Plot9'
p133
(dp134
g3
F0.80000000000000004
sg4
F2.0
sg5
(lp135
F0.0
aF0.0
aF1.0
asg7
(lp136
F0.0
aF0.0
aF37.5
asg9
S'Plot'
p137
sg11
S'Axe Z'
p138
ssS'Element 15'
p139
(dp140
g3
F0.80000000000000004
sg4
F30.0
sg5
(lp141
F0.0
aF0.0
aF1.0
asg7
(lp142
F0.0
aF0.0
aF70.0
asg9
S'Tube'
p143
sg11
S'Axe Z'
p144
ssS'Element 14'
p145
(dp146
g3
F0.80000000000000004
sg4
F1.5
sg5
(lp147
F0.0
aF0.0
aF1.0
asg7
(lp148
F0.0
aF0.0
aF66.5
asg9
S'Tube'
p149
sg11
S'Axe Z'
p150
ssS'Plot2'
p151
(dp152
g57
F0.80000000000000004
sg58
F2.0
sg59
(lp153
F0.0
aF0.0
aF1.0
asg61
(lp154
F0.0
aF0.0
aF3.5
asg63
S'Plot'
p155
sg65
S'Axe Z'
p156
ssS'Plot3'
p157
(dp158
g57
F0.80000000000000004
sg58
F2.0
sg59
(lp159
F0.0
aF0.0
aF1.0
asg61
(lp160
F0.0
aF0.0
aF7.0
asg63
S'Plot'
p161
sg65
S'Axe Z'
p162
ssS'Plot1'
p163
(dp164
g57
F0.80000000000000004
sg58
F2.0
sg59
(lp165
F0.0
aF0.0
aF1.0
asg61
(lp166
F0.0
aF0.0
aF0.0
asg63
S'Plot'
p167
sg65
S'Axe Z'
p168
ssS'Plot6'
p169
(dp170
g3
F0.80000000000000004
sg4
F2.0
sg5
(lp171
F0.0
aF0.0
aF1.0
asg7
(lp172
F0.0
aF0.0
aF27.0
asg9
S'Plot'
p173
sg11
S'Axe Z'
p174
ssS'Plot7'
p175
(dp176
g3
F0.80000000000000004
sg4
F2.0
sg5
(lp177
F0.0
aF0.0
aF1.0
asg7
(lp178
F0.0
aF0.0
aF30.5
asg9
S'Plot'
p179
sg11
S'Axe Z'
p180
ssS'Plot4'
p181
(dp182
g57
F0.80000000000000004
sg58
F2.0
sg59
(lp183
F0.0
aF0.0
aF1.0
asg61
(lp184
F0.0
aF0.0
aF10.5
asg63
S'Plot'
p185
sg65
S'Axe Z'
p186
ssS'Plot5'
p187
(dp188
g57
F0.80000000000000004
sg58
F2.0
sg59
(lp189
F0.0
aF0.0
aF1.0
asg61
(lp190
F0.0
aF0.0
aF14.0
asg63
S'Plot'
p191
sg65
S'Axe Z'
p192
ss.