(dp0
S'Element 13'
p1
(dp2
S'diameter'
p3
F0.80000000000000004
sS'length'
p4
F1.5
sS'vector'
p5
(lp6
F0.0
aF0.0
aF1.0
asS'position'
p7
(lp8
F0.0
aF0.0
aF44.0
asS'type'
p9
S'Tube'
p10
sS'axis'
p11
S'Axe Z'
p12
ssS'Element 18'
p13
(dp14
g3
F0.80000000000000004
sg4
F38.5
sg5
(lp15
F0.0
aF0.0
aF1.0
asg7
(lp16
F0.0
aF0.0
aF61.5
asg9
S'Tube'
p17
sg11
S'Axe Z'
p18
ssS'Element 12'
p19
(dp20
g3
F0.80000000000000004
sg4
F1.5
sg5
(lp21
F0.0
aF0.0
aF1.0
asg7
(lp22
F0.0
aF0.0
aF40.5
asg9
S'Tube'
p23
sg11
S'Axe Z'
p24
ssS'Plot18'
p25
(dp26
g3
F0.80000000000000004
sg4
F2.0
sg5
(lp27
F0.0
aF0.0
aF1.0
asg7
(lp28
F0.0
aF0.0
aF59.5
asg9
S'Plot'
p29
sg11
S'Axe Z'
p30
ssS'Plot14'
p31
(dp32
g3
F0.80000000000000004
sg4
F2.0
sg5
(lp33
F0.0
aF0.0
aF1.0
asg7
(lp34
F0.0
aF0.0
aF45.5
asg9
S'Plot'
p35
sg11
S'Axe Z'
p36
ssS'Plot15'
p37
(dp38
g3
F0.80000000000000004
sg4
F2.0
sg5
(lp39
F0.0
aF0.0
aF1.0
asg7
(lp40
F0.0
aF0.0
aF49.0
asg9
S'Plot'
p41
sg11
S'Axe Z'
p42
ssS'Plot16'
p43
(dp44
g3
F0.80000000000000004
sg4
F2.0
sg5
(lp45
F0.0
aF0.0
aF1.0
asg7
(lp46
F0.0
aF0.0
aF52.5
asg9
S'Plot'
p47
sg11
S'Axe Z'
p48
ssS'Plot17'
p49
(dp50
g3
F0.80000000000000004
sg4
F2.0
sg5
(lp51
F0.0
aF0.0
aF1.0
asg7
(lp52
F0.0
aF0.0
aF56.0
asg9
S'Plot'
p53
sg11
S'Axe Z'
p54
ssS'Plot10'
p55
(dp56
g3
F0.80000000000000004
sg4
F2.0
sg5
(lp57
F0.0
aF0.0
aF1.0
asg7
(lp58
F0.0
aF0.0
aF31.5
asg9
S'Plot'
p59
sg11
S'Axe Z'
p60
ssS'Plot11'
p61
(dp62
g3
F0.80000000000000004
sg4
F2.0
sg5
(lp63
F0.0
aF0.0
aF1.0
asg7
(lp64
F0.0
aF0.0
aF35.0
asg9
S'Plot'
p65
sg11
S'Axe Z'
p66
ssS'Plot12'
p67
(dp68
g3
F0.80000000000000004
sg4
F2.0
sg5
(lp69
F0.0
aF0.0
aF1.0
asg7
(lp70
F0.0
aF0.0
aF38.5
asg9
S'Plot'
p71
sg11
S'Axe Z'
p72
ssS'Plot13'
p73
(dp74
g3
F0.80000000000000004
sg4
F2.0
sg5
(lp75
F0.0
aF0.0
aF1.0
asg7
(lp76
F0.0
aF0.0
aF42.0
asg9
S'Plot'
p77
sg11
S'Axe Z'
p78
ssS'Element 1'
p79
(dp80
S'diameter'
p81
F0.80000000000000004
sS'length'
p82
F1.5
sS'vector'
p83
(lp84
F0.0
aF0.0
aF1.0
asS'position'
p85
(lp86
F0.0
aF0.0
aF2.0
asS'type'
p87
S'Tube'
p88
sS'axis'
p89
S'Axe Z'
p90
ssS'Element 3'
p91
(dp92
g81
F0.80000000000000004
sg82
F1.5
sg83
(lp93
F0.0
aF0.0
aF1.0
asg85
(lp94
F0.0
aF0.0
aF9.0
asg87
S'Tube'
p95
sg89
S'Axe Z'
p96
ssS'Element 2'
p97
(dp98
g81
F0.80000000000000004
sg82
F1.5
sg83
(lp99
F0.0
aF0.0
aF1.0
asg85
(lp100
F0.0
aF0.0
aF5.5
asg87
S'Tube'
p101
sg89
S'Axe Z'
p102
ssS'Element 5'
p103
(dp104
S'diameter'
p105
F0.80000000000000004
sS'length'
p106
F1.5
sS'vector'
p107
(lp108
F0.0
aF0.0
aF1.0
asS'position'
p109
(lp110
F0.0
aF0.0
aF16.0
asS'type'
p111
S'Tube'
p112
sS'axis'
p113
S'Axe Z'
p114
ssS'Element 4'
p115
(dp116
g81
F0.80000000000000004
sg82
F1.5
sg83
(lp117
F0.0
aF0.0
aF1.0
asg85
(lp118
F0.0
aF0.0
aF12.5
asg87
S'Tube'
p119
sg89
S'Axe Z'
p120
ssS'Element 7'
p121
(dp122
S'diameter'
p123
F0.80000000000000004
sS'length'
p124
F1.5
sS'vector'
p125
(lp126
F0.0
aF0.0
aF1.0
asS'position'
p127
(lp128
F0.0
aF0.0
aF23.0
asS'type'
p129
S'Tube'
p130
sS'axis'
p131
S'Axe Z'
p132
ssS'Element 6'
p133
(dp134
g123
F0.80000000000000004
sg124
F1.5
sg125
(lp135
F0.0
aF0.0
aF1.0
asg127
(lp136
F0.0
aF0.0
aF19.5
asg129
S'Tube'
p137
sg131
S'Axe Z'
p138
ssS'Element 9'
p139
(dp140
g3
F0.80000000000000004
sg4
F1.5
sg5
(lp141
F0.0
aF0.0
aF1.0
asg7
(lp142
F0.0
aF0.0
aF30.0
asg9
S'Tube'
p143
sg11
S'Axe Z'
p144
ssS'Element 8'
p145
(dp146
g3
F0.80000000000000004
sg4
F1.5
sg5
(lp147
F0.0
aF0.0
aF1.0
asg7
(lp148
F0.0
aF0.0
aF26.5
asg9
S'Tube'
p149
sg11
S'Axe Z'
p150
ssS'Element 11'
p151
(dp152
g3
F0.80000000000000004
sg4
F1.5
sg5
(lp153
F0.0
aF0.0
aF1.0
asg7
(lp154
F0.0
aF0.0
aF37.0
asg9
S'Tube'
p155
sg11
S'Axe Z'
p156
ssS'Element 10'
p157
(dp158
g3
F0.80000000000000004
sg4
F1.5
sg5
(lp159
F0.0
aF0.0
aF1.0
asg7
(lp160
F0.0
aF0.0
aF33.5
asg9
S'Tube'
p161
sg11
S'Axe Z'
p162
ssS'Plot8'
p163
(dp164
g123
F0.80000000000000004
sg124
F2.0
sg125
(lp165
F0.0
aF0.0
aF1.0
asg127
(lp166
F0.0
aF0.0
aF24.5
asg129
S'Plot'
p167
sg131
S'Axe Z'
p168
ssS'Plot9'
p169
(dp170
g3
F0.80000000000000004
sg4
F2.0
sg5
(lp171
F0.0
aF0.0
aF1.0
asg7
(lp172
F0.0
aF0.0
aF28.0
asg9
S'Plot'
p173
sg11
S'Axe Z'
p174
ssS'Element 15'
p175
(dp176
g3
F0.80000000000000004
sg4
F1.5
sg5
(lp177
F0.0
aF0.0
aF1.0
asg7
(lp178
F0.0
aF0.0
aF51.0
asg9
S'Tube'
p179
sg11
S'Axe Z'
p180
ssS'Element 14'
p181
(dp182
g3
F0.80000000000000004
sg4
F1.5
sg5
(lp183
F0.0
aF0.0
aF1.0
asg7
(lp184
F0.0
aF0.0
aF47.5
asg9
S'Tube'
p185
sg11
S'Axe Z'
p186
ssS'Element 17'
p187
(dp188
g3
F0.80000000000000004
sg4
F1.5
sg5
(lp189
F0.0
aF0.0
aF1.0
asg7
(lp190
F0.0
aF0.0
aF58.0
asg9
S'Tube'
p191
sg11
S'Axe Z'
p192
ssS'Element 16'
p193
(dp194
g3
F0.80000000000000004
sg4
F1.5
sg5
(lp195
F0.0
aF0.0
aF1.0
asg7
(lp196
F0.0
aF0.0
aF54.5
asg9
S'Tube'
p197
sg11
S'Axe Z'
p198
ssS'Plot2'
p199
(dp200
g81
F0.80000000000000004
sg82
F2.0
sg83
(lp201
F0.0
aF0.0
aF1.0
asg85
(lp202
F0.0
aF0.0
aF3.5
asg87
S'Plot'
p203
sg89
S'Axe Z'
p204
ssS'Plot3'
p205
(dp206
g81
F0.80000000000000004
sg82
F2.0
sg83
(lp207
F0.0
aF0.0
aF1.0
asg85
(lp208
F0.0
aF0.0
aF7.0
asg87
S'Plot'
p209
sg89
S'Axe Z'
p210
ssS'Plot1'
p211
(dp212
g81
F0.80000000000000004
sg82
F2.0
sg83
(lp213
F0.0
aF0.0
aF1.0
asg85
(lp214
F0.0
aF0.0
aF0.0
asg87
S'Plot'
p215
sg89
S'Axe Z'
p216
ssS'Plot6'
p217
(dp218
S'diameter'
p219
F0.80000000000000004
sS'length'
p220
F2.0
sS'vector'
p221
(lp222
F0.0
aF0.0
aF1.0
asS'position'
p223
(lp224
F0.0
aF0.0
aF17.5
asS'type'
p225
S'Plot'
p226
sS'axis'
p227
S'Axe Z'
p228
ssS'Plot7'
p229
(dp230
g123
F0.80000000000000004
sg124
F2.0
sg125
(lp231
F0.0
aF0.0
aF1.0
asg127
(lp232
F0.0
aF0.0
aF21.0
asg129
S'Plot'
p233
sg131
S'Axe Z'
p234
ssS'Plot4'
p235
(dp236
g81
F0.80000000000000004
sg82
F2.0
sg83
(lp237
F0.0
aF0.0
aF1.0
asg85
(lp238
F0.0
aF0.0
aF10.5
asg87
S'Plot'
p239
sg89
S'Axe Z'
p240
ssS'Plot5'
p241
(dp242
g81
F0.80000000000000004
sg82
F2.0
sg83
(lp243
F0.0
aF0.0
aF1.0
asg85
(lp244
F0.0
aF0.0
aF14.0
asg87
S'Plot'
p245
sg89
S'Axe Z'
p246
ss.